

Microchip MPLAB XC8 Assembler V2.31 build 20201012212115 
                                                                                               Fri Jun 04 15:37:53 2021

Microchip MPLAB XC8 C Compiler v2.31 (Free license) build 20201012212115 Og1 
     1                           	processor	16F887
     2                           	pagewidth 120
     3                           	opt	flic
     4                           	psect	idataCOMMON,global,class=CODE,delta=2,noexec
     5                           	psect	idataBANK0,global,class=CODE,delta=2,noexec
     6                           	psect	strings,global,class=STRING,delta=2,noexec
     7                           	psect	stringtext,global,reloc=256,class=STRCODE,delta=2,noexec
     8                           	psect	cinit,global,class=CODE,merge=1,delta=2
     9                           	psect	bssCOMMON,global,class=COMMON,space=1,delta=1,noexec
    10                           	psect	dataCOMMON,global,class=COMMON,space=1,delta=1,noexec
    11                           	psect	bssBANK0,global,class=BANK0,space=1,delta=1,noexec
    12                           	psect	dataBANK0,global,class=BANK0,space=1,delta=1,noexec
    13                           	psect	cstackCOMMON,global,class=COMMON,space=1,delta=1,noexec
    14                           	psect	cstackBANK0,global,class=BANK0,space=1,delta=1,noexec
    15                           	psect	maintext,global,class=CODE,split=1,delta=2
    16                           	psect	text1,local,class=CODE,merge=1,delta=2
    17                           	psect	text2,local,class=CODE,merge=1,delta=2
    18                           	psect	text3,local,class=CODE,merge=1,delta=2
    19                           	psect	text4,local,class=CODE,merge=1,delta=2,group=1
    20                           	psect	text5,local,class=CODE,merge=1,delta=2,group=1
    21                           	psect	text6,local,class=CODE,merge=1,delta=2
    22                           	psect	text7,local,class=CODE,merge=1,delta=2,group=2
    23                           	psect	text8,local,class=CODE,merge=1,delta=2
    24                           	psect	intentry,global,class=CODE,delta=2
    25                           	psect	text9,local,class=CODE,merge=1,delta=2
    26                           	psect	config,global,abs,ovrld,class=CONFIG,space=4,delta=2,noexec
    27                           	dabs	1,0x7E,2
    28  0000                     
    29                           ; Version 2.20
    30                           ; Generated 12/02/2020 GMT
    31                           ; 
    32                           ; Copyright © 2020, Microchip Technology Inc. and its subsidiaries ("Microchip")
    33                           ; All rights reserved.
    34                           ; 
    35                           ; This software is developed by Microchip Technology Inc. and its subsidiaries ("Microch
      +                          ip").
    36                           ; 
    37                           ; Redistribution and use in source and binary forms, with or without modification, are
    38                           ; permitted provided that the following conditions are met:
    39                           ; 
    40                           ;     1. Redistributions of source code must retain the above copyright notice, this lis
      +                          t of
    41                           ;        conditions and the following disclaimer.
    42                           ; 
    43                           ;     2. Redistributions in binary form must reproduce the above copyright notice, this 
      +                          list
    44                           ;        of conditions and the following disclaimer in the documentation and/or other
    45                           ;        materials provided with the distribution.
    46                           ; 
    47                           ;     3. Microchip's name may not be used to endorse or promote products derived from th
      +                          is
    48                           ;        software without specific prior written permission.
    49                           ; 
    50                           ; THIS SOFTWARE IS PROVIDED BY MICROCHIP "AS IS" AND ANY EXPRESS OR IMPLIED WARRANTIES,
    51                           ; INCLUDING, BUT NOT LIMITED TO, THE IMPLIED WARRANTIES OF MERCHANTABILITY AND FITNESS F
      +                          OR
    52                           ; PURPOSE ARE DISCLAIMED.  IN NO EVENT SHALL MICROCHIP BE LIABLE FOR ANY DIRECT, INDIREC
      +                          T,
    53                           ; INCIDENTAL, SPECIAL, EXEMPLARY, OR CONSEQUENTIAL DAMAGES (INCLUDING BUT NOT LIMITED TO
    54                           ; PROCUREMENT OF SUBSTITUTE GOODS OR SERVICES; LOSS OF USE, DATA OR PROFITS; OR BUSINESS
    55                           ; INTERRUPTION) HOWSOEVER CAUSED AND ON ANY THEORY OF LIABILITY, WHETHER IN CONTRACT, ST
      +                          RICT
    56                           ; LIABILITY, OR TORT (INCLUDING NEGLIGENCE OR OTHERWISE) ARISING IN ANY WAY OUT OF THE U
      +                          SE OF
    57                           ; THIS SOFTWARE, EVEN IF ADVISED OF THE POSSIBILITY OF SUCH DAMAGE.
    58                           ; 
    59                           ; 
    60                           ; Code-generator required, PIC16F887 Definitions
    61                           ; 
    62                           ; SFR Addresses
    63  0000                     	;# 
    64  0001                     	;# 
    65  0002                     	;# 
    66  0003                     	;# 
    67  0004                     	;# 
    68  0005                     	;# 
    69  0006                     	;# 
    70  0007                     	;# 
    71  0008                     	;# 
    72  0009                     	;# 
    73  000A                     	;# 
    74  000B                     	;# 
    75  000C                     	;# 
    76  000D                     	;# 
    77  000E                     	;# 
    78  000E                     	;# 
    79  000F                     	;# 
    80  0010                     	;# 
    81  0011                     	;# 
    82  0012                     	;# 
    83  0013                     	;# 
    84  0014                     	;# 
    85  0015                     	;# 
    86  0015                     	;# 
    87  0016                     	;# 
    88  0017                     	;# 
    89  0018                     	;# 
    90  0019                     	;# 
    91  001A                     	;# 
    92  001B                     	;# 
    93  001B                     	;# 
    94  001C                     	;# 
    95  001D                     	;# 
    96  001E                     	;# 
    97  001F                     	;# 
    98  0081                     	;# 
    99  0085                     	;# 
   100  0086                     	;# 
   101  0087                     	;# 
   102  0088                     	;# 
   103  0089                     	;# 
   104  008C                     	;# 
   105  008D                     	;# 
   106  008E                     	;# 
   107  008F                     	;# 
   108  0090                     	;# 
   109  0091                     	;# 
   110  0092                     	;# 
   111  0093                     	;# 
   112  0093                     	;# 
   113  0093                     	;# 
   114  0094                     	;# 
   115  0095                     	;# 
   116  0096                     	;# 
   117  0097                     	;# 
   118  0098                     	;# 
   119  0099                     	;# 
   120  009A                     	;# 
   121  009B                     	;# 
   122  009C                     	;# 
   123  009D                     	;# 
   124  009E                     	;# 
   125  009F                     	;# 
   126  0105                     	;# 
   127  0107                     	;# 
   128  0108                     	;# 
   129  0109                     	;# 
   130  010C                     	;# 
   131  010C                     	;# 
   132  010D                     	;# 
   133  010E                     	;# 
   134  010F                     	;# 
   135  0185                     	;# 
   136  0187                     	;# 
   137  0188                     	;# 
   138  0189                     	;# 
   139  018C                     	;# 
   140  018D                     	;# 
   141  0000                     	;# 
   142  0001                     	;# 
   143  0002                     	;# 
   144  0003                     	;# 
   145  0004                     	;# 
   146  0005                     	;# 
   147  0006                     	;# 
   148  0007                     	;# 
   149  0008                     	;# 
   150  0009                     	;# 
   151  000A                     	;# 
   152  000B                     	;# 
   153  000C                     	;# 
   154  000D                     	;# 
   155  000E                     	;# 
   156  000E                     	;# 
   157  000F                     	;# 
   158  0010                     	;# 
   159  0011                     	;# 
   160  0012                     	;# 
   161  0013                     	;# 
   162  0014                     	;# 
   163  0015                     	;# 
   164  0015                     	;# 
   165  0016                     	;# 
   166  0017                     	;# 
   167  0018                     	;# 
   168  0019                     	;# 
   169  001A                     	;# 
   170  001B                     	;# 
   171  001B                     	;# 
   172  001C                     	;# 
   173  001D                     	;# 
   174  001E                     	;# 
   175  001F                     	;# 
   176  0081                     	;# 
   177  0085                     	;# 
   178  0086                     	;# 
   179  0087                     	;# 
   180  0088                     	;# 
   181  0089                     	;# 
   182  008C                     	;# 
   183  008D                     	;# 
   184  008E                     	;# 
   185  008F                     	;# 
   186  0090                     	;# 
   187  0091                     	;# 
   188  0092                     	;# 
   189  0093                     	;# 
   190  0093                     	;# 
   191  0093                     	;# 
   192  0094                     	;# 
   193  0095                     	;# 
   194  0096                     	;# 
   195  0097                     	;# 
   196  0098                     	;# 
   197  0099                     	;# 
   198  009A                     	;# 
   199  009B                     	;# 
   200  009C                     	;# 
   201  009D                     	;# 
   202  009E                     	;# 
   203  009F                     	;# 
   204  0105                     	;# 
   205  0107                     	;# 
   206  0108                     	;# 
   207  0109                     	;# 
   208  010C                     	;# 
   209  010C                     	;# 
   210  010D                     	;# 
   211  010E                     	;# 
   212  010F                     	;# 
   213  0185                     	;# 
   214  0187                     	;# 
   215  0188                     	;# 
   216  0189                     	;# 
   217  018C                     	;# 
   218  018D                     	;# 
   219                           
   220                           	psect	idataCOMMON
   221  05FF                     __pidataCOMMON:
   222                           
   223                           ;initializer for _read_EEPROM
   224  05FF  3410               	retlw	16
   225                           
   226                           	psect	idataBANK0
   227  05FC                     __pidataBANK0:
   228                           
   229                           ;initializer for _flag
   230  05FC  3401               	retlw	1
   231  05FD  3400               	retlw	0
   232                           
   233                           ;initializer for _addressEEPROM
   234  05FE  3410               	retlw	16
   235  0018                     _RCSTAbits	set	24
   236  0012                     _T2CONbits	set	18
   237  0009                     _PORTE	set	9
   238  0007                     _PORTC	set	7
   239  0006                     _PORTB	set	6
   240  000B                     _INTCONbits	set	11
   241  001A                     _RCREG	set	26
   242  0006                     _PORTBbits	set	6
   243  0019                     _TXREG	set	25
   244  001E                     _ADRESH	set	30
   245  0005                     _PORTAbits	set	5
   246  0005                     _PORTA	set	5
   247  001D                     _CCP2CONbits	set	29
   248  001B                     _CCPR2L	set	27
   249  0008                     _PORTDbits	set	8
   250  0017                     _CCP1CONbits	set	23
   251  0015                     _CCPR1L	set	21
   252  0008                     _PORTD	set	8
   253  000C                     _PIR1bits	set	12
   254  001F                     _ADCON0bits	set	31
   255  0096                     _IOCB	set	150
   256  008C                     _PIE1bits	set	140
   257  009A                     _SPBRGH	set	154
   258  0099                     _SPBRG	set	153
   259  0098                     _TXSTAbits	set	152
   260  0092                     _PR2	set	146
   261  009F                     _ADCON1bits	set	159
   262  0095                     _WPUB	set	149
   263  0081                     _OPTION_REGbits	set	129
   264  0089                     _TRISE	set	137
   265  0088                     _TRISD	set	136
   266  0087                     _TRISC	set	135
   267  0086                     _TRISB	set	134
   268  0085                     _TRISA	set	133
   269  008F                     _OSCCONbits	set	143
   270  009E                     _ADRESL	set	158
   271  010C                     _EEDATA	set	268
   272  010C                     _EEDAT	set	268
   273  010D                     _EEADR	set	269
   274  0187                     _BAUDCTLbits	set	391
   275  0188                     _ANSEL	set	392
   276  0189                     _ANSELH	set	393
   277  018D                     _EECON2	set	397
   278  018C                     _EECON1bits	set	396
   279                           
   280                           	psect	strings
   281  05EA                     __pstrings:
   282  05EA                     stringtab:
   283  05EA                     __stringtab:
   284                           
   285                           ;	String table - string pointers are 2 bytes each
   286  05EA  1BFF               	btfsc	btemp+1,7
   287  05EB  2DF4               	ljmp	stringcode
   288  05EC  1383               	bcf	3,7
   289  05ED  187F               	btfsc	btemp+1,0
   290  05EE  1783               	bsf	3,7
   291  05EF  0800               	movf	0,w
   292  05F0  0A84               	incf	4,f
   293  05F1  1903               	skipnz
   294  05F2  0AFF               	incf	btemp+1,f
   295  05F3  0008               	return
   296  05F4                     stringcode:
   297  05F4  087F               	movf	btemp+1,w
   298  05F5  397F               	andlw	127
   299  05F6  008A               	movwf	10
   300  05F7  0804               	movf	4,w
   301  05F8  0A84               	incf	4,f
   302  05F9  1903               	skipnz
   303  05FA  0AFF               	incf	btemp+1,f
   304  05FB  0082               	movwf	2
   305  05FC                     __stringbase:
   306  05FC                     __end_of__stringtab:
   307                           
   308                           	psect	stringtext
   309  0600                     __pstringtext:
   310  0600                     STR_1:
   311  0600  3453               	retlw	83	;'S'
   312  0601  3469               	retlw	105	;'i'
   313  0602  3420               	retlw	32	;' '
   314  0603  3464               	retlw	100	;'d'
   315  0604  3465               	retlw	101	;'e'
   316  0605  3473               	retlw	115	;'s'
   317  0606  3465               	retlw	101	;'e'
   318  0607  3461               	retlw	97	;'a'
   319  0608  3420               	retlw	32	;' '
   320  0609  3469               	retlw	105	;'i'
   321  060A  346E               	retlw	110	;'n'
   322  060B  3467               	retlw	103	;'g'
   323  060C  3472               	retlw	114	;'r'
   324  060D  3465               	retlw	101	;'e'
   325  060E  3473               	retlw	115	;'s'
   326  060F  3461               	retlw	97	;'a'
   327  0610  3472               	retlw	114	;'r'
   328  0611  3420               	retlw	32	;' '
   329  0612  3461               	retlw	97	;'a'
   330  0613  3420               	retlw	32	;' '
   331  0614  346D               	retlw	109	;'m'
   332  0615  346F               	retlw	111	;'o'
   333  0616  3464               	retlw	100	;'d'
   334  0617  346F               	retlw	111	;'o'
   335  0618  3420               	retlw	32	;' '
   336  0619  3463               	retlw	99	;'c'
   337  061A  346F               	retlw	111	;'o'
   338  061B  346E               	retlw	110	;'n'
   339  061C  3474               	retlw	116	;'t'
   340  061D  3472               	retlw	114	;'r'
   341  061E  346F               	retlw	111	;'o'
   342  061F  346C               	retlw	108	;'l'
   343  0620  3420               	retlw	32	;' '
   344  0621  3455               	retlw	85	;'U'
   345  0622  3453               	retlw	83	;'S'
   346  0623  3441               	retlw	65	;'A'
   347  0624  3452               	retlw	82	;'R'
   348  0625  3454               	retlw	84	;'T'
   349  0626  3420               	retlw	32	;' '
   350  0627  3470               	retlw	112	;'p'
   351  0628  3472               	retlw	114	;'r'
   352  0629  3465               	retlw	101	;'e'
   353  062A  3473               	retlw	115	;'s'
   354  062B  3469               	retlw	105	;'i'
   355  062C  346F               	retlw	111	;'o'
   356  062D  346E               	retlw	110	;'n'
   357  062E  3465               	retlw	101	;'e'
   358  062F  3420               	retlw	32	;' '
   359  0630  3431               	retlw	49	;'1'
   360  0631  3400               	retlw	0
   361  0632                     STR_16:
   362  0632  3445               	retlw	69	;'E'
   363  0633  346C               	retlw	108	;'l'
   364  0634  3469               	retlw	105	;'i'
   365  0635  346A               	retlw	106	;'j'
   366  0636  3461               	retlw	97	;'a'
   367  0637  3420               	retlw	32	;' '
   368  0638  3475               	retlw	117	;'u'
   369  0639  346E               	retlw	110	;'n'
   370  063A  3461               	retlw	97	;'a'
   371  063B  3420               	retlw	32	;' '
   372  063C  3464               	retlw	100	;'d'
   373  063D  3465               	retlw	101	;'e'
   374  063E  3420               	retlw	32	;' '
   375  063F  346C               	retlw	108	;'l'
   376  0640  3461               	retlw	97	;'a'
   377  0641  3473               	retlw	115	;'s'
   378  0642  3420               	retlw	32	;' '
   379  0643  3473               	retlw	115	;'s'
   380  0644  3469               	retlw	105	;'i'
   381  0645  3467               	retlw	103	;'g'
   382  0646  3475               	retlw	117	;'u'
   383  0647  3469               	retlw	105	;'i'
   384  0648  3465               	retlw	101	;'e'
   385  0649  346E               	retlw	110	;'n'
   386  064A  3474               	retlw	116	;'t'
   387  064B  3465               	retlw	101	;'e'
   388  064C  3473               	retlw	115	;'s'
   389  064D  3420               	retlw	32	;' '
   390  064E  3461               	retlw	97	;'a'
   391  064F  3463               	retlw	99	;'c'
   392  0650  3463               	retlw	99	;'c'
   393  0651  3469               	retlw	105	;'i'
   394  0652  346F               	retlw	111	;'o'
   395  0653  346E               	retlw	110	;'n'
   396  0654  3465               	retlw	101	;'e'
   397  0655  3473               	retlw	115	;'s'
   398  0656  343A               	retlw	58	;':'
   399  0657  3400               	retlw	0
   400  0658                     STR_12:
   401  0658  3445               	retlw	69	;'E'
   402  0659  346C               	retlw	108	;'l'
   403  065A  3469               	retlw	105	;'i'
   404  065B  346A               	retlw	106	;'j'
   405  065C  3461               	retlw	97	;'a'
   406  065D  3420               	retlw	32	;' '
   407  065E  346C               	retlw	108	;'l'
   408  065F  3461               	retlw	97	;'a'
   409  0660  3420               	retlw	32	;' '
   410  0661  3470               	retlw	112	;'p'
   411  0662  346F               	retlw	111	;'o'
   412  0663  3473               	retlw	115	;'s'
   413  0664  3469               	retlw	105	;'i'
   414  0665  3463               	retlw	99	;'c'
   415  0666  3469               	retlw	105	;'i'
   416  0667  346F               	retlw	111	;'o'
   417  0668  346E               	retlw	110	;'n'
   418  0669  3420               	retlw	32	;' '
   419  066A  3464               	retlw	100	;'d'
   420  066B  3465               	retlw	101	;'e'
   421  066C  346C               	retlw	108	;'l'
   422  066D  3420               	retlw	32	;' '
   423  066E  3473               	retlw	115	;'s'
   424  066F  3465               	retlw	101	;'e'
   425  0670  3467               	retlw	103	;'g'
   426  0671  3475               	retlw	117	;'u'
   427  0672  346E               	retlw	110	;'n'
   428  0673  3464               	retlw	100	;'d'
   429  0674  346F               	retlw	111	;'o'
   430  0675  3420               	retlw	32	;' '
   431  0676  3473               	retlw	115	;'s'
   432  0677  3465               	retlw	101	;'e'
   433  0678  3472               	retlw	114	;'r'
   434  0679  3476               	retlw	118	;'v'
   435  067A  346F               	retlw	111	;'o'
   436  067B  343A               	retlw	58	;':'
   437  067C  3400               	retlw	0
   438  067D                     STR_8:
   439  067D  3445               	retlw	69	;'E'
   440  067E  346C               	retlw	108	;'l'
   441  067F  3469               	retlw	105	;'i'
   442  0680  346A               	retlw	106	;'j'
   443  0681  3461               	retlw	97	;'a'
   444  0682  3420               	retlw	32	;' '
   445  0683  346C               	retlw	108	;'l'
   446  0684  3461               	retlw	97	;'a'
   447  0685  3420               	retlw	32	;' '
   448  0686  3470               	retlw	112	;'p'
   449  0687  346F               	retlw	111	;'o'
   450  0688  3473               	retlw	115	;'s'
   451  0689  3469               	retlw	105	;'i'
   452  068A  3463               	retlw	99	;'c'
   453  068B  3469               	retlw	105	;'i'
   454  068C  346F               	retlw	111	;'o'
   455  068D  346E               	retlw	110	;'n'
   456  068E  3420               	retlw	32	;' '
   457  068F  3464               	retlw	100	;'d'
   458  0690  3465               	retlw	101	;'e'
   459  0691  346C               	retlw	108	;'l'
   460  0692  3420               	retlw	32	;' '
   461  0693  3470               	retlw	112	;'p'
   462  0694  3472               	retlw	114	;'r'
   463  0695  3469               	retlw	105	;'i'
   464  0696  346D               	retlw	109	;'m'
   465  0697  3465               	retlw	101	;'e'
   466  0698  3472               	retlw	114	;'r'
   467  0699  3420               	retlw	32	;' '
   468  069A  3473               	retlw	115	;'s'
   469  069B  3465               	retlw	101	;'e'
   470  069C  3472               	retlw	114	;'r'
   471  069D  3476               	retlw	118	;'v'
   472  069E  346F               	retlw	111	;'o'
   473  069F  343A               	retlw	58	;':'
   474  06A0  3400               	retlw	0
   475  06A1                     STR_6:
   476  06A1  3428               	retlw	40	;'('
   477  06A2  3434               	retlw	52	;'4'
   478  06A3  3429               	retlw	41	;')'
   479  06A4  344D               	retlw	77	;'M'
   480  06A5  346F               	retlw	111	;'o'
   481  06A6  3473               	retlw	115	;'s'
   482  06A7  3474               	retlw	116	;'t'
   483  06A8  3472               	retlw	114	;'r'
   484  06A9  3461               	retlw	97	;'a'
   485  06AA  3472               	retlw	114	;'r'
   486  06AB  3420               	retlw	32	;' '
   487  06AC  3476               	retlw	118	;'v'
   488  06AD  3461               	retlw	97	;'a'
   489  06AE  346C               	retlw	108	;'l'
   490  06AF  346F               	retlw	111	;'o'
   491  06B0  3472               	retlw	114	;'r'
   492  06B1  3420               	retlw	32	;' '
   493  06B2  3464               	retlw	100	;'d'
   494  06B3  3465               	retlw	101	;'e'
   495  06B4  346C               	retlw	108	;'l'
   496  06B5  3420               	retlw	32	;' '
   497  06B6  3470               	retlw	112	;'p'
   498  06B7  346F               	retlw	111	;'o'
   499  06B8  3474               	retlw	116	;'t'
   500  06B9  3465               	retlw	101	;'e'
   501  06BA  346E               	retlw	110	;'n'
   502  06BB  3463               	retlw	99	;'c'
   503  06BC  3469               	retlw	105	;'i'
   504  06BD  346F               	retlw	111	;'o'
   505  06BE  346D               	retlw	109	;'m'
   506  06BF  3465               	retlw	101	;'e'
   507  06C0  3474               	retlw	116	;'t'
   508  06C1  3472               	retlw	114	;'r'
   509  06C2  346F               	retlw	111	;'o'
   510  06C3  3400               	retlw	0
   511  06C4                     STR_7:
   512  06C4  3428               	retlw	40	;'('
   513  06C5  3435               	retlw	53	;'5'
   514  06C6  3429               	retlw	41	;')'
   515  06C7  3453               	retlw	83	;'S'
   516  06C8  3461               	retlw	97	;'a'
   517  06C9  346C               	retlw	108	;'l'
   518  06CA  3469               	retlw	105	;'i'
   519  06CB  3472               	retlw	114	;'r'
   520  06CC  3420               	retlw	32	;' '
   521  06CD  3464               	retlw	100	;'d'
   522  06CE  3465               	retlw	101	;'e'
   523  06CF  3420               	retlw	32	;' '
   524  06D0  3463               	retlw	99	;'c'
   525  06D1  346F               	retlw	111	;'o'
   526  06D2  346E               	retlw	110	;'n'
   527  06D3  3474               	retlw	116	;'t'
   528  06D4  3472               	retlw	114	;'r'
   529  06D5  346F               	retlw	111	;'o'
   530  06D6  346C               	retlw	108	;'l'
   531  06D7  3420               	retlw	32	;' '
   532  06D8  3470               	retlw	112	;'p'
   533  06D9  346F               	retlw	111	;'o'
   534  06DA  3472               	retlw	114	;'r'
   535  06DB  3420               	retlw	32	;' '
   536  06DC  3455               	retlw	85	;'U'
   537  06DD  3453               	retlw	83	;'S'
   538  06DE  3441               	retlw	65	;'A'
   539  06DF  3452               	retlw	82	;'R'
   540  06E0  3454               	retlw	84	;'T'
   541  06E1  3400               	retlw	0
   542  06E2                     STR_22:
   543  06E2  3428               	retlw	40	;'('
   544  06E3  3431               	retlw	49	;'1'
   545  06E4  3429               	retlw	41	;')'
   546  06E5  3420               	retlw	32	;' '
   547  06E6  3445               	retlw	69	;'E'
   548  06E7  346E               	retlw	110	;'n'
   549  06E8  3463               	retlw	99	;'c'
   550  06E9  3465               	retlw	101	;'e'
   551  06EA  346E               	retlw	110	;'n'
   552  06EB  3464               	retlw	100	;'d'
   553  06EC  3465               	retlw	101	;'e'
   554  06ED  3472               	retlw	114	;'r'
   555  06EE  3420               	retlw	32	;' '
   556  06EF  346C               	retlw	108	;'l'
   557  06F0  3475               	retlw	117	;'u'
   558  06F1  3463               	retlw	99	;'c'
   559  06F2  3465               	retlw	101	;'e'
   560  06F3  3473               	retlw	115	;'s'
   561  06F4  3420               	retlw	32	;' '
   562  06F5  3464               	retlw	100	;'d'
   563  06F6  3465               	retlw	101	;'e'
   564  06F7  346C               	retlw	108	;'l'
   565  06F8  3461               	retlw	97	;'a'
   566  06F9  346E               	retlw	110	;'n'
   567  06FA  3474               	retlw	116	;'t'
   568  06FB  3465               	retlw	101	;'e'
   569  06FC  3472               	retlw	114	;'r'
   570  06FD  3461               	retlw	97	;'a'
   571  06FE  3473               	retlw	115	;'s'
   572  06FF  3400               	retlw	0
   573  0700                     STR_23:
   574  0700  3428               	retlw	40	;'('
   575  0701  3432               	retlw	50	;'2'
   576  0702  3429               	retlw	41	;')'
   577  0703  3420               	retlw	32	;' '
   578  0704  3445               	retlw	69	;'E'
   579  0705  346E               	retlw	110	;'n'
   580  0706  3463               	retlw	99	;'c'
   581  0707  3465               	retlw	101	;'e'
   582  0708  346E               	retlw	110	;'n'
   583  0709  3464               	retlw	100	;'d'
   584  070A  3465               	retlw	101	;'e'
   585  070B  3472               	retlw	114	;'r'
   586  070C  3420               	retlw	32	;' '
   587  070D  346C               	retlw	108	;'l'
   588  070E  3475               	retlw	117	;'u'
   589  070F  3463               	retlw	99	;'c'
   590  0710  3465               	retlw	101	;'e'
   591  0711  3473               	retlw	115	;'s'
   592  0712  3420               	retlw	32	;' '
   593  0713  3474               	retlw	116	;'t'
   594  0714  3472               	retlw	114	;'r'
   595  0715  3461               	retlw	97	;'a'
   596  0716  3473               	retlw	115	;'s'
   597  0717  3465               	retlw	101	;'e'
   598  0718  3472               	retlw	114	;'r'
   599  0719  3461               	retlw	97	;'a'
   600  071A  3473               	retlw	115	;'s'
   601  071B  3400               	retlw	0
   602  071C                     STR_2:
   603  071C  3451               	retlw	81	;'Q'
   604  071D  3475               	retlw	117	;'u'
   605  071E  3465               	retlw	101	;'e'
   606  071F  3420               	retlw	32	;' '
   607  0720  3461               	retlw	97	;'a'
   608  0721  3463               	retlw	99	;'c'
   609  0722  3463               	retlw	99	;'c'
   610  0723  3469               	retlw	105	;'i'
   611  0724  346F               	retlw	111	;'o'
   612  0725  346E               	retlw	110	;'n'
   613  0726  3420               	retlw	32	;' '
   614  0727  3464               	retlw	100	;'d'
   615  0728  3465               	retlw	101	;'e'
   616  0729  3473               	retlw	115	;'s'
   617  072A  3465               	retlw	101	;'e'
   618  072B  3461               	retlw	97	;'a'
   619  072C  3420               	retlw	32	;' '
   620  072D  3465               	retlw	101	;'e'
   621  072E  346A               	retlw	106	;'j'
   622  072F  3465               	retlw	101	;'e'
   623  0730  3463               	retlw	99	;'c'
   624  0731  3475               	retlw	117	;'u'
   625  0732  3474               	retlw	116	;'t'
   626  0733  3461               	retlw	97	;'a'
   627  0734  3472               	retlw	114	;'r'
   628  0735  343F               	retlw	63	;'?'
   629  0736  3400               	retlw	0
   630  0737                     STR_25:
   631  0737  3456               	retlw	86	;'V'
   632  0738  3461               	retlw	97	;'a'
   633  0739  346C               	retlw	108	;'l'
   634  073A  346F               	retlw	111	;'o'
   635  073B  3472               	retlw	114	;'r'
   636  073C  3420               	retlw	32	;' '
   637  073D  3464               	retlw	100	;'d'
   638  073E  3465               	retlw	101	;'e'
   639  073F  346C               	retlw	108	;'l'
   640  0740  3420               	retlw	32	;' '
   641  0741  3470               	retlw	112	;'p'
   642  0742  346F               	retlw	111	;'o'
   643  0743  3474               	retlw	116	;'t'
   644  0744  3465               	retlw	101	;'e'
   645  0745  346E               	retlw	110	;'n'
   646  0746  3463               	retlw	99	;'c'
   647  0747  3469               	retlw	105	;'i'
   648  0748  346F               	retlw	111	;'o'
   649  0749  346D               	retlw	109	;'m'
   650  074A  3465               	retlw	101	;'e'
   651  074B  3474               	retlw	116	;'t'
   652  074C  3472               	retlw	114	;'r'
   653  074D  346F               	retlw	111	;'o'
   654  074E  343A               	retlw	58	;':'
   655  074F  3400               	retlw	0
   656  0750                     STR_20:
   657  0750  3428               	retlw	40	;'('
   658  0751  3434               	retlw	52	;'4'
   659  0752  3429               	retlw	41	;')'
   660  0753  3420               	retlw	32	;' '
   661  0754  3447               	retlw	71	;'G'
   662  0755  3469               	retlw	105	;'i'
   663  0756  3472               	retlw	114	;'r'
   664  0757  3461               	retlw	97	;'a'
   665  0758  3472               	retlw	114	;'r'
   666  0759  3420               	retlw	32	;' '
   667  075A  3461               	retlw	97	;'a'
   668  075B  3420               	retlw	32	;' '
   669  075C  346C               	retlw	108	;'l'
   670  075D  3461               	retlw	97	;'a'
   671  075E  3420               	retlw	32	;' '
   672  075F  3469               	retlw	105	;'i'
   673  0760  347A               	retlw	122	;'z'
   674  0761  3471               	retlw	113	;'q'
   675  0762  3475               	retlw	117	;'u'
   676  0763  3469               	retlw	105	;'i'
   677  0764  3465               	retlw	101	;'e'
   678  0765  3472               	retlw	114	;'r'
   679  0766  3464               	retlw	100	;'d'
   680  0767  3461               	retlw	97	;'a'
   681  0768  3400               	retlw	0
   682  0769                     STR_19:
   683  0769  3428               	retlw	40	;'('
   684  076A  3433               	retlw	51	;'3'
   685  076B  3429               	retlw	41	;')'
   686  076C  3420               	retlw	32	;' '
   687  076D  3447               	retlw	71	;'G'
   688  076E  3469               	retlw	105	;'i'
   689  076F  3472               	retlw	114	;'r'
   690  0770  3461               	retlw	97	;'a'
   691  0771  3472               	retlw	114	;'r'
   692  0772  3420               	retlw	32	;' '
   693  0773  3461               	retlw	97	;'a'
   694  0774  3420               	retlw	32	;' '
   695  0775  346C               	retlw	108	;'l'
   696  0776  3461               	retlw	97	;'a'
   697  0777  3420               	retlw	32	;' '
   698  0778  3464               	retlw	100	;'d'
   699  0779  3465               	retlw	101	;'e'
   700  077A  3472               	retlw	114	;'r'
   701  077B  3465               	retlw	101	;'e'
   702  077C  3463               	retlw	99	;'c'
   703  077D  3468               	retlw	104	;'h'
   704  077E  3461               	retlw	97	;'a'
   705  077F  3400               	retlw	0
   706  0780                     STR_4:
   707  0780  3428               	retlw	40	;'('
   708  0781  3432               	retlw	50	;'2'
   709  0782  3429               	retlw	41	;')'
   710  0783  3443               	retlw	67	;'C'
   711  0784  346F               	retlw	111	;'o'
   712  0785  346E               	retlw	110	;'n'
   713  0786  3474               	retlw	116	;'t'
   714  0787  3472               	retlw	114	;'r'
   715  0788  346F               	retlw	111	;'o'
   716  0789  346C               	retlw	108	;'l'
   717  078A  3461               	retlw	97	;'a'
   718  078B  3472               	retlw	114	;'r'
   719  078C  3420               	retlw	32	;' '
   720  078D  3443               	retlw	67	;'C'
   721  078E  3461               	retlw	97	;'a'
   722  078F  3472               	retlw	114	;'r'
   723  0790  3472               	retlw	114	;'r'
   724  0791  346F               	retlw	111	;'o'
   725  0792  3400               	retlw	0
   726  0793                     STR_5:
   727  0793  3428               	retlw	40	;'('
   728  0794  3433               	retlw	51	;'3'
   729  0795  3429               	retlw	41	;')'
   730  0796  3443               	retlw	67	;'C'
   731  0797  346F               	retlw	111	;'o'
   732  0798  346E               	retlw	110	;'n'
   733  0799  3474               	retlw	116	;'t'
   734  079A  3472               	retlw	114	;'r'
   735  079B  346F               	retlw	111	;'o'
   736  079C  346C               	retlw	108	;'l'
   737  079D  3461               	retlw	97	;'a'
   738  079E  3472               	retlw	114	;'r'
   739  079F  3420               	retlw	32	;' '
   740  07A0  344C               	retlw	76	;'L'
   741  07A1  3475               	retlw	117	;'u'
   742  07A2  3463               	retlw	99	;'c'
   743  07A3  3465               	retlw	101	;'e'
   744  07A4  3473               	retlw	115	;'s'
   745  07A5  3400               	retlw	0
   746  07A6                     STR_3:
   747  07A6  3428               	retlw	40	;'('
   748  07A7  3431               	retlw	49	;'1'
   749  07A8  3429               	retlw	41	;')'
   750  07A9  3443               	retlw	67	;'C'
   751  07AA  346F               	retlw	111	;'o'
   752  07AB  346E               	retlw	110	;'n'
   753  07AC  3474               	retlw	116	;'t'
   754  07AD  3472               	retlw	114	;'r'
   755  07AE  346F               	retlw	111	;'o'
   756  07AF  346C               	retlw	108	;'l'
   757  07B0  3461               	retlw	97	;'a'
   758  07B1  3472               	retlw	114	;'r'
   759  07B2  3420               	retlw	32	;' '
   760  07B3  3447               	retlw	71	;'G'
   761  07B4  3472               	retlw	114	;'r'
   762  07B5  3475               	retlw	117	;'u'
   763  07B6  3461               	retlw	97	;'a'
   764  07B7  3400               	retlw	0
   765  07B8                     STR_11:
   766  07B8  3428               	retlw	40	;'('
   767  07B9  3433               	retlw	51	;'3'
   768  07BA  3429               	retlw	41	;')'
   769  07BB  3420               	retlw	32	;' '
   770  07BC  3431               	retlw	49	;'1'
   771  07BD  3438               	retlw	56	;'8'
   772  07BE  3430               	retlw	48	;'0'
   773  07BF  3420               	retlw	32	;' '
   774  07C0  345B               	retlw	91	;'['
   775  07C1  3467               	retlw	103	;'g'
   776  07C2  3472               	retlw	114	;'r'
   777  07C3  3461               	retlw	97	;'a'
   778  07C4  3464               	retlw	100	;'d'
   779  07C5  346F               	retlw	111	;'o'
   780  07C6  3473               	retlw	115	;'s'
   781  07C7  345D               	retlw	93	;']'
   782  07C8  3400               	retlw	0
   783  07C9                     STR_10:
   784  07C9  3428               	retlw	40	;'('
   785  07CA  3432               	retlw	50	;'2'
   786  07CB  3429               	retlw	41	;')'
   787  07CC  3420               	retlw	32	;' '
   788  07CD  3439               	retlw	57	;'9'
   789  07CE  3430               	retlw	48	;'0'
   790  07CF  3420               	retlw	32	;' '
   791  07D0  345B               	retlw	91	;'['
   792  07D1  3467               	retlw	103	;'g'
   793  07D2  3472               	retlw	114	;'r'
   794  07D3  3461               	retlw	97	;'a'
   795  07D4  3464               	retlw	100	;'d'
   796  07D5  346F               	retlw	111	;'o'
   797  07D6  3473               	retlw	115	;'s'
   798  07D7  345D               	retlw	93	;']'
   799  07D8  3400               	retlw	0
   800  07D9                     STR_9:
   801  07D9  3428               	retlw	40	;'('
   802  07DA  3431               	retlw	49	;'1'
   803  07DB  3429               	retlw	41	;')'
   804  07DC  3420               	retlw	32	;' '
   805  07DD  3430               	retlw	48	;'0'
   806  07DE  3420               	retlw	32	;' '
   807  07DF  345B               	retlw	91	;'['
   808  07E0  3467               	retlw	103	;'g'
   809  07E1  3472               	retlw	114	;'r'
   810  07E2  3461               	retlw	97	;'a'
   811  07E3  3464               	retlw	100	;'d'
   812  07E4  346F               	retlw	111	;'o'
   813  07E5  3473               	retlw	115	;'s'
   814  07E6  345D               	retlw	93	;']'
   815  07E7  3400               	retlw	0
   816  07E8                     STR_18:
   817  07E8  3428               	retlw	40	;'('
   818  07E9  3432               	retlw	50	;'2'
   819  07EA  3429               	retlw	41	;')'
   820  07EB  3420               	retlw	32	;' '
   821  07EC  3452               	retlw	82	;'R'
   822  07ED  3465               	retlw	101	;'e'
   823  07EE  3474               	retlw	116	;'t'
   824  07EF  3472               	retlw	114	;'r'
   825  07F0  346F               	retlw	111	;'o'
   826  07F1  3463               	retlw	99	;'c'
   827  07F2  3465               	retlw	101	;'e'
   828  07F3  3464               	retlw	100	;'d'
   829  07F4  3465               	retlw	101	;'e'
   830  07F5  3472               	retlw	114	;'r'
   831  07F6  3400               	retlw	0
   832  07F7                     STR_24:
   833  07F7  3428               	retlw	40	;'('
   834  07F8  3433               	retlw	51	;'3'
   835  07F9  3429               	retlw	41	;')'
   836  07FA  3420               	retlw	32	;' '
   837  07FB  3450               	retlw	80	;'P'
   838  07FC  3461               	retlw	97	;'a'
   839  07FD  3472               	retlw	114	;'r'
   840  07FE  3470               	retlw	112	;'p'
   841  07FF  3461               	retlw	97	;'a'
   842  0800  3464               	retlw	100	;'d'
   843  0801  3465               	retlw	101	;'e'
   844  0802  346F               	retlw	111	;'o'
   845  0803  3400               	retlw	0
   846  0804                     STR_17:
   847  0804  3428               	retlw	40	;'('
   848  0805  3431               	retlw	49	;'1'
   849  0806  3429               	retlw	41	;')'
   850  0807  3420               	retlw	32	;' '
   851  0808  3441               	retlw	65	;'A'
   852  0809  3476               	retlw	118	;'v'
   853  080A  3461               	retlw	97	;'a'
   854  080B  346E               	retlw	110	;'n'
   855  080C  347A               	retlw	122	;'z'
   856  080D  3461               	retlw	97	;'a'
   857  080E  3472               	retlw	114	;'r'
   858  080F  3400               	retlw	0
   859  0600                     
   860                           	psect	cinit
   861  000F                     start_initialization:	
   862                           ; #config settings
   863                           
   864  000F                     __initialization:
   865                           
   866                           ; Initialize objects allocated to BANK0
   867  000F  120A  118A  25FC  120A  118A  	fcall	__pidataBANK0	;fetch initializer
   868  0014  00BA               	movwf	__pdataBANK0& (0+127)
   869  0015  120A  118A  25FD  120A  118A  	fcall	__pidataBANK0+1	;fetch initializer
   870  001A  00BB               	movwf	(__pdataBANK0+1)& (0+127)
   871  001B  120A  118A  25FE  120A  118A  	fcall	__pidataBANK0+2	;fetch initializer
   872  0020  00BC               	movwf	(__pdataBANK0+2)& (0+127)
   873                           
   874                           ; Initialize objects allocated to COMMON
   875  0021  120A  118A  25FF  120A  118A  	fcall	__pidataCOMMON	;fetch initializer
   876  0026  00FA               	movwf	__pdataCOMMON& (0+127)
   877                           
   878                           ; Clear objects allocated to BANK0
   879  0027  01AE               	clrf	__pbssBANK0& (0+127)
   880  0028  01AF               	clrf	(__pbssBANK0+1)& (0+127)
   881  0029  01B0               	clrf	(__pbssBANK0+2)& (0+127)
   882  002A  01B1               	clrf	(__pbssBANK0+3)& (0+127)
   883  002B  01B2               	clrf	(__pbssBANK0+4)& (0+127)
   884  002C  01B3               	clrf	(__pbssBANK0+5)& (0+127)
   885  002D  01B4               	clrf	(__pbssBANK0+6)& (0+127)
   886  002E  01B5               	clrf	(__pbssBANK0+7)& (0+127)
   887  002F  01B6               	clrf	(__pbssBANK0+8)& (0+127)
   888  0030  01B7               	clrf	(__pbssBANK0+9)& (0+127)
   889  0031  01B8               	clrf	(__pbssBANK0+10)& (0+127)
   890  0032  01B9               	clrf	(__pbssBANK0+11)& (0+127)
   891                           
   892                           ; Clear objects allocated to COMMON
   893  0033  01F8               	clrf	__pbssCOMMON& (0+127)
   894  0034  01F9               	clrf	(__pbssCOMMON+1)& (0+127)
   895  0035                     end_of_initialization:	
   896                           ;End of C runtime variable initialization code
   897                           
   898  0035                     __end_of__initialization:
   899  0035  0183               	clrf	3
   900  0036  120A  118A  2839   	ljmp	_main	;jump to C main() function
   901                           
   902                           	psect	bssCOMMON
   903  0078                     __pbssCOMMON:
   904  0078                     _flag2:
   905  0078                     	ds	2
   906                           
   907                           	psect	dataCOMMON
   908  007A                     __pdataCOMMON:
   909  007A                     _read_EEPROM:
   910  007A                     	ds	1
   911                           
   912                           	psect	bssBANK0
   913  002E                     __pbssBANK0:
   914  002E                     _RB3_old:
   915  002E                     	ds	2
   916  0030                     _eepromVal:
   917  0030                     	ds	1
   918  0031                     _unidades:
   919  0031                     	ds	1
   920  0032                     _decenas_temp:
   921  0032                     	ds	1
   922  0033                     _decenas:
   923  0033                     	ds	1
   924  0034                     _centenas:
   925  0034                     	ds	1
   926  0035                     _var_temp:
   927  0035                     	ds	1
   928  0036                     _valor_pot:
   929  0036                     	ds	1
   930  0037                     _temp_posicion2:
   931  0037                     	ds	1
   932  0038                     _temp_posicion1:
   933  0038                     	ds	1
   934  0039                     _opcion:
   935  0039                     	ds	1
   936                           
   937                           	psect	dataBANK0
   938  003A                     __pdataBANK0:
   939  003A                     _flag:
   940  003A                     	ds	2
   941  003C                     _addressEEPROM:
   942  003C                     	ds	1
   943                           
   944                           	psect	cstackCOMMON
   945  0070                     __pcstackCOMMON:
   946  0070                     ?_setup:
   947  0070                     ?_decimal:	
   948                           ; 1 bytes @ 0x0
   949                           
   950  0070                     ?_readFromEEPROM:	
   951                           ; 1 bytes @ 0x0
   952                           
   953  0070                     ??_readFromEEPROM:	
   954                           ; 1 bytes @ 0x0
   955                           
   956  0070                     ?_main:	
   957                           ; 1 bytes @ 0x0
   958                           
   959  0070                     ?_isr:	
   960                           ; 1 bytes @ 0x0
   961                           
   962                           
   963                           ; 1 bytes @ 0x0
   964  0070                     	ds	1
   965  0071                     readFromEEPROM@address:
   966                           
   967                           ; 1 bytes @ 0x1
   968  0071                     	ds	1
   969  0072                     readFromEEPROM@data:
   970                           
   971                           ; 1 bytes @ 0x2
   972  0072                     	ds	1
   973  0073                     ??_isr:
   974                           
   975                           ; 1 bytes @ 0x3
   976  0073                     	ds	5
   977                           
   978                           	psect	cstackBANK0
   979  0020                     __pcstackBANK0:
   980  0020                     ??_setup:
   981  0020                     ??_decimal:	
   982                           ; 1 bytes @ 0x0
   983                           
   984  0020                     ?_writeToEEPROM:	
   985                           ; 1 bytes @ 0x0
   986                           
   987  0020                     ?_strlen:	
   988                           ; 1 bytes @ 0x0
   989                           
   990  0020                     ?___awdiv:	
   991                           ; 2 bytes @ 0x0
   992                           
   993  0020                     ?___awmod:	
   994                           ; 2 bytes @ 0x0
   995                           
   996  0020                     decimal@val:	
   997                           ; 2 bytes @ 0x0
   998                           
   999  0020                     writeToEEPROM@address:	
  1000                           ; 1 bytes @ 0x0
  1001                           
  1002  0020                     ___awdiv@divisor:	
  1003                           ; 1 bytes @ 0x0
  1004                           
  1005  0020                     ___awmod@divisor:	
  1006                           ; 2 bytes @ 0x0
  1007                           
  1008  0020                     strlen@s:	
  1009                           ; 2 bytes @ 0x0
  1010                           
  1011                           
  1012                           ; 2 bytes @ 0x0
  1013  0020                     	ds	1
  1014  0021                     ??_writeToEEPROM:
  1015  0021                     writeToEEPROM@data:	
  1016                           ; 1 bytes @ 0x1
  1017                           
  1018                           
  1019                           ; 1 bytes @ 0x1
  1020  0021                     	ds	1
  1021  0022                     ??_strlen:
  1022  0022                     ___awdiv@dividend:	
  1023                           ; 1 bytes @ 0x2
  1024                           
  1025  0022                     ___awmod@dividend:	
  1026                           ; 2 bytes @ 0x2
  1027                           
  1028  0022                     strlen@cp:	
  1029                           ; 2 bytes @ 0x2
  1030                           
  1031                           
  1032                           ; 2 bytes @ 0x2
  1033  0022                     	ds	2
  1034  0024                     ?_String_Completo:
  1035  0024                     ??___awdiv:	
  1036                           ; 1 bytes @ 0x4
  1037                           
  1038  0024                     ??___awmod:	
  1039                           ; 1 bytes @ 0x4
  1040                           
  1041  0024                     String_Completo@var:	
  1042                           ; 1 bytes @ 0x4
  1043                           
  1044                           
  1045                           ; 2 bytes @ 0x4
  1046  0024                     	ds	1
  1047  0025                     ___awdiv@counter:
  1048  0025                     ___awmod@counter:	
  1049                           ; 1 bytes @ 0x5
  1050                           
  1051                           
  1052                           ; 1 bytes @ 0x5
  1053  0025                     	ds	1
  1054  0026                     ??_String_Completo:
  1055  0026                     ___awdiv@sign:	
  1056                           ; 1 bytes @ 0x6
  1057                           
  1058  0026                     ___awmod@sign:	
  1059                           ; 1 bytes @ 0x6
  1060                           
  1061                           
  1062                           ; 1 bytes @ 0x6
  1063  0026                     	ds	1
  1064  0027                     ___awdiv@quotient:
  1065                           
  1066                           ; 2 bytes @ 0x7
  1067  0027                     	ds	2
  1068  0029                     String_Completo@i:
  1069                           
  1070                           ; 2 bytes @ 0x9
  1071  0029                     	ds	2
  1072  002B                     ??_main:
  1073                           
  1074                           ; 1 bytes @ 0xB
  1075  002B                     	ds	3
  1076                           
  1077                           	psect	maintext
  1078  0039                     __pmaintext:	
  1079 ;;
  1080 ;;Main: autosize = 0, tempsize = 3, incstack = 0, save=0
  1081 ;;
  1082 ;; *************** function _main *****************
  1083 ;; Defined at:
  1084 ;;		line 89 in file "Proyecto2.c"
  1085 ;; Parameters:    Size  Location     Type
  1086 ;;		None
  1087 ;; Auto vars:     Size  Location     Type
  1088 ;;		None
  1089 ;; Return value:  Size  Location     Type
  1090 ;;                  1    wreg      void 
  1091 ;; Registers used:
  1092 ;;		wreg, fsr0l, fsr0h, status,2, status,0, btemp+1, pclath, cstack
  1093 ;; Tracked objects:
  1094 ;;		On entry : B00/0
  1095 ;;		On exit  : 0/0
  1096 ;;		Unchanged: 0/0
  1097 ;; Data sizes:     COMMON   BANK0   BANK1   BANK3   BANK2
  1098 ;;      Params:         0       0       0       0       0
  1099 ;;      Locals:         0       0       0       0       0
  1100 ;;      Temps:          0       3       0       0       0
  1101 ;;      Totals:         0       3       0       0       0
  1102 ;;Total ram usage:        3 bytes
  1103 ;; Hardware stack levels required when called:    4
  1104 ;; This function calls:
  1105 ;;		_String_Completo
  1106 ;;		___awdiv
  1107 ;;		___awmod
  1108 ;;		_decimal
  1109 ;;		_setup
  1110 ;;		_writeToEEPROM
  1111 ;; This function is called by:
  1112 ;;		Startup code after reset
  1113 ;; This function uses a non-reentrant model
  1114 ;;
  1115                           
  1116                           
  1117                           ;psect for function _main
  1118  0039                     _main:
  1119  0039                     l1862:	
  1120                           ;incstack = 0
  1121                           ; Regs used in _main: [wreg-fsr0h+status,2+status,0+btemp+1+pclath+cstack]
  1122                           
  1123                           
  1124                           ;Proyecto2.c: 90:                                 CCP1CONbits.DC1B1 = PORTDbits.RD0;
  1125  0039  120A  118A  2568  120A  118A  	fcall	_setup
  1126  003E                     l1864:
  1127                           
  1128                           ;Proyecto2.c: 91:                                 CCP1CONbits.DC1B0 = ADRESL>>7;
  1129  003E  1283               	bcf	3,5	;RP0=0, select bank0
  1130  003F  1303               	bcf	3,6	;RP1=0, select bank0
  1131  0040  149F               	bsf	31,1	;volatile
  1132  0041                     l1866:
  1133                           
  1134                           ;Proyecto2.c: 94:                                 PORTD = 255;;Proyecto2.c: 96:         
      +                                                  CCP1CONbits.DC1B1 = PORTDbits.RD0;
  1135  0041  189F               	btfsc	31,1	;volatile
  1136  0042  2844               	goto	u1491
  1137  0043  2845               	goto	u1490
  1138  0044                     u1491:
  1139  0044  2878               	goto	l1884
  1140  0045                     u1490:
  1141  0045                     l1868:
  1142                           
  1143                           ;Proyecto2.c: 97:                                 CCP1CONbits.DC1B0 = ADRESL>>7;
  1144  0045  0C1F               	rrf	31,w	;volatile
  1145  0046  00AB               	movwf	??_main
  1146  0047  0C2B               	rrf	??_main,w
  1147  0048  390F               	andlw	15
  1148  0049  3A05               	xorlw	5
  1149  004A  1D03               	skipz
  1150  004B  284D               	goto	u1501
  1151  004C  284E               	goto	u1500
  1152  004D                     u1501:
  1153  004D  2853               	goto	l1872
  1154  004E                     u1500:
  1155  004E                     l1870:
  1156                           
  1157                           ;Proyecto2.c: 98:                             }
  1158  004E  081F               	movf	31,w	;volatile
  1159  004F  39C3               	andlw	-61
  1160  0050  3818               	iorlw	24
  1161  0051  009F               	movwf	31	;volatile
  1162  0052  286E               	goto	l1880
  1163  0053                     l1872:
  1164  0053  0C1F               	rrf	31,w	;volatile
  1165  0054  00AB               	movwf	??_main
  1166  0055  0C2B               	rrf	??_main,w
  1167  0056  390F               	andlw	15
  1168  0057  3A06               	xorlw	6
  1169  0058  1D03               	skipz
  1170  0059  285B               	goto	u1511
  1171  005A  285C               	goto	u1510
  1172  005B                     u1511:
  1173  005B  2861               	goto	l1876
  1174  005C                     u1510:
  1175  005C                     l1874:
  1176                           
  1177                           ;Proyecto2.c: 100:                             String_Completo("Elija la posicion del se
      +                          gundo servo:");
  1178  005C  081F               	movf	31,w	;volatile
  1179  005D  39C3               	andlw	-61
  1180  005E  3814               	iorlw	20
  1181  005F  009F               	movwf	31	;volatile
  1182  0060  286E               	goto	l1880
  1183  0061                     l1876:
  1184  0061  0C1F               	rrf	31,w	;volatile
  1185  0062  00AB               	movwf	??_main
  1186  0063  0C2B               	rrf	??_main,w
  1187  0064  390F               	andlw	15
  1188  0065  3A07               	xorlw	7
  1189  0066  1D03               	skipz
  1190  0067  2869               	goto	u1521
  1191  0068  286A               	goto	u1520
  1192  0069                     u1521:
  1193  0069  286E               	goto	l1880
  1194  006A                     u1520:
  1195  006A                     l1878:
  1196                           
  1197                           ;Proyecto2.c: 102:                             String_Completo("(2) 90 [grados]");
  1198  006A  081F               	movf	31,w	;volatile
  1199  006B  39C3               	andlw	-61
  1200  006C  3814               	iorlw	20
  1201  006D  009F               	movwf	31	;volatile
  1202  006E                     l1880:
  1203                           
  1204                           ;Proyecto2.c: 103:                             String_Completo("(3) 180 [grados]");
  1205  006E  3020               	movlw	32
  1206  006F  1283               	bcf	3,5	;RP0=0, select bank0
  1207  0070  1303               	bcf	3,6	;RP1=0, select bank0
  1208  0071  00AB               	movwf	??_main
  1209  0072                     u2317:
  1210  0072  0BAB               	decfsz	??_main,f
  1211  0073  2872               	goto	u2317
  1212  0074  0000               	nop
  1213  0075                     l1882:
  1214                           
  1215                           ;Proyecto2.c: 104:                             flag = 1;
  1216  0075  1283               	bcf	3,5	;RP0=0, select bank0
  1217  0076  1303               	bcf	3,6	;RP1=0, select bank0
  1218  0077  149F               	bsf	31,1	;volatile
  1219  0078                     l1884:
  1220                           
  1221                           ;Proyecto2.c: 108: 
  1222  0078  1E0C               	btfss	12,4	;volatile
  1223  0079  287B               	goto	u1531
  1224  007A  287C               	goto	u1530
  1225  007B                     u1531:
  1226  007B  2D03               	goto	l2134
  1227  007C                     u1530:
  1228  007C                     l1886:
  1229                           
  1230                           ;Proyecto2.c: 109:                             if(opcion==49){
  1231  007C  083A               	movf	_flag,w
  1232  007D  043B               	iorwf	_flag+1,w
  1233  007E  1903               	btfsc	3,2
  1234  007F  2881               	goto	u1541
  1235  0080  2882               	goto	u1540
  1236  0081                     u1541:
  1237  0081  288F               	goto	l1892
  1238  0082                     u1540:
  1239  0082                     l1888:
  1240                           
  1241                           ;Proyecto2.c: 110:                                 PORTD = 0;
  1242  0082  3000               	movlw	low (STR_1| (0+32768))
  1243  0083  00A4               	movwf	String_Completo@var
  1244  0084  3086               	movlw	high (STR_1| (0+32768))
  1245  0085  00A5               	movwf	String_Completo@var+1
  1246  0086  120A  158A  2550  120A  118A  	fcall	_String_Completo
  1247  008B                     l1890:
  1248                           
  1249                           ;Proyecto2.c: 111:                                 CCPR2L = (PORTD>>1) + 128;
  1250  008B  1283               	bcf	3,5	;RP0=0, select bank0
  1251  008C  1303               	bcf	3,6	;RP1=0, select bank0
  1252  008D  01BA               	clrf	_flag
  1253  008E  01BB               	clrf	_flag+1
  1254  008F                     l1892:
  1255                           
  1256                           ;Proyecto2.c: 114:                             }
  1257  008F  3031               	movlw	49
  1258  0090  0639               	xorwf	_opcion,w
  1259  0091  1D03               	btfss	3,2
  1260  0092  2894               	goto	u1551
  1261  0093  2895               	goto	u1550
  1262  0094                     u1551:
  1263  0094  2D03               	goto	l2134
  1264  0095                     u1550:
  1265  0095                     l1894:
  1266                           
  1267                           ;Proyecto2.c: 115:                             if(opcion==50){
  1268  0095  3001               	movlw	1
  1269  0096  00BA               	movwf	_flag
  1270  0097  3000               	movlw	0
  1271  0098  00BB               	movwf	_flag+1
  1272  0099                     l1896:
  1273                           
  1274                           ;Proyecto2.c: 116:                                 PORTD = 128;
  1275  0099  01B9               	clrf	_opcion
  1276                           
  1277                           ;Proyecto2.c: 117:                                 CCPR2L = (PORTD>>1) + 128;
  1278  009A  2CEA               	goto	l2126
  1279  009B                     l1898:
  1280                           
  1281                           ;Proyecto2.c: 119:                                 CCP2CONbits.DC2B0 = ADRESL>>7;
  1282  009B  083A               	movf	_flag,w
  1283  009C  043B               	iorwf	_flag+1,w
  1284  009D  1903               	btfsc	3,2
  1285  009E  28A0               	goto	u1561
  1286  009F  28A1               	goto	u1560
  1287  00A0                     u1561:
  1288  00A0  28E5               	goto	l1904
  1289  00A1                     u1560:
  1290  00A1                     l1900:
  1291                           
  1292                           ;Proyecto2.c: 120:                             }
  1293  00A1  301C               	movlw	low (STR_2| (0+32768))
  1294  00A2  00A4               	movwf	String_Completo@var
  1295  00A3  3087               	movlw	high (STR_2| (0+32768))
  1296  00A4  00A5               	movwf	String_Completo@var+1
  1297  00A5  120A  158A  2550  120A  118A  	fcall	_String_Completo
  1298                           
  1299                           ;Proyecto2.c: 121:                             if(opcion==51){
  1300  00AA  30A6               	movlw	low (STR_3| (0+32768))
  1301  00AB  1283               	bcf	3,5	;RP0=0, select bank0
  1302  00AC  1303               	bcf	3,6	;RP1=0, select bank0
  1303  00AD  00A4               	movwf	String_Completo@var
  1304  00AE  3087               	movlw	high (STR_3| (0+32768))
  1305  00AF  00A5               	movwf	String_Completo@var+1
  1306  00B0  120A  158A  2550  120A  118A  	fcall	_String_Completo
  1307                           
  1308                           ;Proyecto2.c: 122:                                 PORTD = 255;
  1309  00B5  3080               	movlw	low (STR_4| (0+32768))
  1310  00B6  1283               	bcf	3,5	;RP0=0, select bank0
  1311  00B7  1303               	bcf	3,6	;RP1=0, select bank0
  1312  00B8  00A4               	movwf	String_Completo@var
  1313  00B9  3087               	movlw	high (STR_4| (0+32768))
  1314  00BA  00A5               	movwf	String_Completo@var+1
  1315  00BB  120A  158A  2550  120A  118A  	fcall	_String_Completo
  1316                           
  1317                           ;Proyecto2.c: 123:                                 CCPR2L = (PORTD>>1) + 128;
  1318  00C0  3093               	movlw	low (STR_5| (0+32768))
  1319  00C1  1283               	bcf	3,5	;RP0=0, select bank0
  1320  00C2  1303               	bcf	3,6	;RP1=0, select bank0
  1321  00C3  00A4               	movwf	String_Completo@var
  1322  00C4  3087               	movlw	high (STR_5| (0+32768))
  1323  00C5  00A5               	movwf	String_Completo@var+1
  1324  00C6  120A  158A  2550  120A  118A  	fcall	_String_Completo
  1325                           
  1326                           ;Proyecto2.c: 124:                                 CCP2CONbits.DC2B1 = PORTDbits.RD0;
  1327  00CB  30A1               	movlw	low (STR_6| (0+32768))
  1328  00CC  1283               	bcf	3,5	;RP0=0, select bank0
  1329  00CD  1303               	bcf	3,6	;RP1=0, select bank0
  1330  00CE  00A4               	movwf	String_Completo@var
  1331  00CF  3086               	movlw	high (STR_6| (0+32768))
  1332  00D0  00A5               	movwf	String_Completo@var+1
  1333  00D1  120A  158A  2550  120A  118A  	fcall	_String_Completo
  1334                           
  1335                           ;Proyecto2.c: 125:                                 CCP2CONbits.DC2B0 = ADRESL>>7;
  1336  00D6  30C4               	movlw	low (STR_7| (0+32768))
  1337  00D7  1283               	bcf	3,5	;RP0=0, select bank0
  1338  00D8  1303               	bcf	3,6	;RP1=0, select bank0
  1339  00D9  00A4               	movwf	String_Completo@var
  1340  00DA  3086               	movlw	high (STR_7| (0+32768))
  1341  00DB  00A5               	movwf	String_Completo@var+1
  1342  00DC  120A  158A  2550  120A  118A  	fcall	_String_Completo
  1343  00E1                     l1902:
  1344                           
  1345                           ;Proyecto2.c: 126:                             }
  1346  00E1  1283               	bcf	3,5	;RP0=0, select bank0
  1347  00E2  1303               	bcf	3,6	;RP1=0, select bank0
  1348  00E3  01BA               	clrf	_flag
  1349  00E4  01BB               	clrf	_flag+1
  1350  00E5                     l1904:
  1351                           
  1352                           ;Proyecto2.c: 128:                         }
  1353  00E5  3031               	movlw	49
  1354  00E6  0639               	xorwf	_opcion,w
  1355  00E7  1D03               	btfss	3,2
  1356  00E8  28EA               	goto	u1571
  1357  00E9  28EB               	goto	u1570
  1358  00EA                     u1571:
  1359  00EA  2A5E               	goto	l1988
  1360  00EB                     u1570:
  1361  00EB                     l1906:
  1362                           
  1363                           ;Proyecto2.c: 129: 
  1364  00EB  307D               	movlw	low (STR_8| (0+32768))
  1365  00EC  00A4               	movwf	String_Completo@var
  1366  00ED  3086               	movlw	high (STR_8| (0+32768))
  1367  00EE  00A5               	movwf	String_Completo@var+1
  1368  00EF  120A  158A  2550  120A  118A  	fcall	_String_Completo
  1369                           
  1370                           ;Proyecto2.c: 130:                         if(opcion==50){
  1371  00F4  30D9               	movlw	low (STR_9| (0+32768))
  1372  00F5  1283               	bcf	3,5	;RP0=0, select bank0
  1373  00F6  1303               	bcf	3,6	;RP1=0, select bank0
  1374  00F7  00A4               	movwf	String_Completo@var
  1375  00F8  3087               	movlw	high (STR_9| (0+32768))
  1376  00F9  00A5               	movwf	String_Completo@var+1
  1377  00FA  120A  158A  2550  120A  118A  	fcall	_String_Completo
  1378                           
  1379                           ;Proyecto2.c: 131:                             String_Completo("Elija una de las siguien
      +                          tes acciones:");
  1380  00FF  30C9               	movlw	low (STR_10| (0+32768))
  1381  0100  1283               	bcf	3,5	;RP0=0, select bank0
  1382  0101  1303               	bcf	3,6	;RP1=0, select bank0
  1383  0102  00A4               	movwf	String_Completo@var
  1384  0103  3087               	movlw	high (STR_10| (0+32768))
  1385  0104  00A5               	movwf	String_Completo@var+1
  1386  0105  120A  158A  2550  120A  118A  	fcall	_String_Completo
  1387                           
  1388                           ;Proyecto2.c: 132:                             String_Completo("(1) Avanzar");
  1389  010A  30B8               	movlw	low (STR_11| (0+32768))
  1390  010B  1283               	bcf	3,5	;RP0=0, select bank0
  1391  010C  1303               	bcf	3,6	;RP1=0, select bank0
  1392  010D  00A4               	movwf	String_Completo@var
  1393  010E  3087               	movlw	high (STR_11| (0+32768))
  1394  010F  00A5               	movwf	String_Completo@var+1
  1395  0110  120A  158A  2550  120A  118A  	fcall	_String_Completo
  1396  0115                     l1908:
  1397                           
  1398                           ;Proyecto2.c: 133:                             String_Completo("(2) Retroceder");
  1399  0115  3001               	movlw	1
  1400  0116  1283               	bcf	3,5	;RP0=0, select bank0
  1401  0117  1303               	bcf	3,6	;RP1=0, select bank0
  1402  0118  00BA               	movwf	_flag
  1403  0119  3000               	movlw	0
  1404  011A  00BB               	movwf	_flag+1
  1405  011B                     l1910:
  1406                           
  1407                           ;Proyecto2.c: 134:                             String_Completo("(3) Girar a la derecha")
      +                          ;
  1408  011B  01B9               	clrf	_opcion
  1409  011C                     l1912:	
  1410                           ;Proyecto2.c: 136: 
  1411                           
  1412  011C  0839               	movf	_opcion,w
  1413  011D  1903               	btfsc	3,2
  1414  011E  2920               	goto	u1581
  1415  011F  2921               	goto	u1580
  1416  0120                     u1581:
  1417  0120  291C               	goto	l1912
  1418  0121                     u1580:
  1419  0121                     l1914:
  1420                           
  1421                           ;Proyecto2.c: 138:                             opcion = 0;
  1422  0121  3031               	movlw	49
  1423  0122  0639               	xorwf	_opcion,w
  1424  0123  1D03               	btfss	3,2
  1425  0124  2926               	goto	u1591
  1426  0125  2927               	goto	u1590
  1427  0126                     u1591:
  1428  0126  294C               	goto	l1924
  1429  0127                     u1590:
  1430  0127                     l1916:
  1431                           
  1432                           ;Proyecto2.c: 139: 
  1433  0127  0188               	clrf	8	;volatile
  1434  0128                     l1918:
  1435                           
  1436                           ;Proyecto2.c: 140:                             while(!opcion){}
  1437  0128  0808               	movf	8,w	;volatile
  1438  0129  00AB               	movwf	??_main
  1439  012A  1003               	clrc
  1440  012B  0C2B               	rrf	??_main,w
  1441  012C  3E80               	addlw	128
  1442  012D  0095               	movwf	21	;volatile
  1443  012E                     l1920:
  1444                           
  1445                           ;Proyecto2.c: 141:                             if (opcion == 52){
  1446  012E  1808               	btfsc	8,0	;volatile
  1447  012F  2931               	goto	u1601
  1448  0130  2935               	goto	u1600
  1449  0131                     u1601:
  1450  0131  1283               	bcf	3,5	;RP0=0, select bank0
  1451  0132  1303               	bcf	3,6	;RP1=0, select bank0
  1452  0133  1697               	bsf	23,5	;volatile
  1453  0134  2938               	goto	u1614
  1454  0135                     u1600:
  1455  0135  1283               	bcf	3,5	;RP0=0, select bank0
  1456  0136  1303               	bcf	3,6	;RP1=0, select bank0
  1457  0137  1297               	bcf	23,5	;volatile
  1458  0138                     u1614:
  1459  0138                     l1922:
  1460                           
  1461                           ;Proyecto2.c: 142:                                     PORTA = 2;
  1462  0138  1683               	bsf	3,5	;RP0=1, select bank1
  1463  0139  1303               	bcf	3,6	;RP1=0, select bank1
  1464  013A  081E               	movf	30,w	;volatile
  1465  013B  1283               	bcf	3,5	;RP0=0, select bank0
  1466  013C  1303               	bcf	3,6	;RP1=0, select bank0
  1467  013D  00AB               	movwf	??_main
  1468  013E  3007               	movlw	7
  1469  013F                     u1625:
  1470  013F  1003               	clrc
  1471  0140  0CAB               	rrf	??_main,f
  1472  0141  3EFF               	addlw	-1
  1473  0142  1D03               	skipz
  1474  0143  293F               	goto	u1625
  1475  0144  082B               	movf	??_main,w
  1476  0145  00AC               	movwf	??_main+1
  1477  0146  0EAC               	swapf	??_main+1,f
  1478  0147  0817               	movf	23,w	;volatile
  1479  0148  062C               	xorwf	??_main+1,w
  1480  0149  39EF               	andlw	-17
  1481  014A  062C               	xorwf	??_main+1,w
  1482  014B  0097               	movwf	23	;volatile
  1483  014C                     l1924:
  1484                           
  1485                           ;Proyecto2.c: 144:                                     PORTA = 0;
  1486  014C  3032               	movlw	50
  1487  014D  0639               	xorwf	_opcion,w
  1488  014E  1D03               	btfss	3,2
  1489  014F  2951               	goto	u1631
  1490  0150  2952               	goto	u1630
  1491  0151                     u1631:
  1492  0151  2978               	goto	l1934
  1493  0152                     u1630:
  1494  0152                     l1926:
  1495                           
  1496                           ;Proyecto2.c: 145:                             }
  1497  0152  3080               	movlw	128
  1498  0153  0088               	movwf	8	;volatile
  1499  0154                     l1928:
  1500                           
  1501                           ;Proyecto2.c: 146: 
  1502  0154  0808               	movf	8,w	;volatile
  1503  0155  00AB               	movwf	??_main
  1504  0156  1003               	clrc
  1505  0157  0C2B               	rrf	??_main,w
  1506  0158  3E80               	addlw	128
  1507  0159  0095               	movwf	21	;volatile
  1508  015A                     l1930:
  1509                           
  1510                           ;Proyecto2.c: 147:                             if(opcion == 51) {
  1511  015A  1808               	btfsc	8,0	;volatile
  1512  015B  295D               	goto	u1641
  1513  015C  2961               	goto	u1640
  1514  015D                     u1641:
  1515  015D  1283               	bcf	3,5	;RP0=0, select bank0
  1516  015E  1303               	bcf	3,6	;RP1=0, select bank0
  1517  015F  1697               	bsf	23,5	;volatile
  1518  0160  2964               	goto	u1654
  1519  0161                     u1640:
  1520  0161  1283               	bcf	3,5	;RP0=0, select bank0
  1521  0162  1303               	bcf	3,6	;RP1=0, select bank0
  1522  0163  1297               	bcf	23,5	;volatile
  1523  0164                     u1654:
  1524  0164                     l1932:
  1525                           
  1526                           ;Proyecto2.c: 148:                                     PORTA = 1;
  1527  0164  1683               	bsf	3,5	;RP0=1, select bank1
  1528  0165  1303               	bcf	3,6	;RP1=0, select bank1
  1529  0166  081E               	movf	30,w	;volatile
  1530  0167  1283               	bcf	3,5	;RP0=0, select bank0
  1531  0168  1303               	bcf	3,6	;RP1=0, select bank0
  1532  0169  00AB               	movwf	??_main
  1533  016A  3007               	movlw	7
  1534  016B                     u1665:
  1535  016B  1003               	clrc
  1536  016C  0CAB               	rrf	??_main,f
  1537  016D  3EFF               	addlw	-1
  1538  016E  1D03               	skipz
  1539  016F  296B               	goto	u1665
  1540  0170  082B               	movf	??_main,w
  1541  0171  00AC               	movwf	??_main+1
  1542  0172  0EAC               	swapf	??_main+1,f
  1543  0173  0817               	movf	23,w	;volatile
  1544  0174  062C               	xorwf	??_main+1,w
  1545  0175  39EF               	andlw	-17
  1546  0176  062C               	xorwf	??_main+1,w
  1547  0177  0097               	movwf	23	;volatile
  1548  0178                     l1934:
  1549                           
  1550                           ;Proyecto2.c: 150:                                     PORTA = 0;
  1551  0178  3033               	movlw	51
  1552  0179  0639               	xorwf	_opcion,w
  1553  017A  1D03               	btfss	3,2
  1554  017B  297D               	goto	u1671
  1555  017C  297E               	goto	u1670
  1556  017D                     u1671:
  1557  017D  29A4               	goto	l1944
  1558  017E                     u1670:
  1559  017E                     l1936:
  1560                           
  1561                           ;Proyecto2.c: 151:                             }
  1562  017E  30FF               	movlw	255
  1563  017F  0088               	movwf	8	;volatile
  1564  0180                     l1938:
  1565                           
  1566                           ;Proyecto2.c: 152:                             if(opcion == 49) {
  1567  0180  0808               	movf	8,w	;volatile
  1568  0181  00AB               	movwf	??_main
  1569  0182  1003               	clrc
  1570  0183  0C2B               	rrf	??_main,w
  1571  0184  3E78               	addlw	120
  1572  0185  0095               	movwf	21	;volatile
  1573  0186                     l1940:
  1574                           
  1575                           ;Proyecto2.c: 153:                                 PORTA = 8;
  1576  0186  1808               	btfsc	8,0	;volatile
  1577  0187  2989               	goto	u1681
  1578  0188  298D               	goto	u1680
  1579  0189                     u1681:
  1580  0189  1283               	bcf	3,5	;RP0=0, select bank0
  1581  018A  1303               	bcf	3,6	;RP1=0, select bank0
  1582  018B  1697               	bsf	23,5	;volatile
  1583  018C  2990               	goto	u1694
  1584  018D                     u1680:
  1585  018D  1283               	bcf	3,5	;RP0=0, select bank0
  1586  018E  1303               	bcf	3,6	;RP1=0, select bank0
  1587  018F  1297               	bcf	23,5	;volatile
  1588  0190                     u1694:
  1589  0190                     l1942:
  1590                           
  1591                           ;Proyecto2.c: 154:                                 _delay((unsigned long)((3000)*(800000
      +                          0/4000.0)));
  1592  0190  1683               	bsf	3,5	;RP0=1, select bank1
  1593  0191  1303               	bcf	3,6	;RP1=0, select bank1
  1594  0192  081E               	movf	30,w	;volatile
  1595  0193  1283               	bcf	3,5	;RP0=0, select bank0
  1596  0194  1303               	bcf	3,6	;RP1=0, select bank0
  1597  0195  00AB               	movwf	??_main
  1598  0196  3007               	movlw	7
  1599  0197                     u1705:
  1600  0197  1003               	clrc
  1601  0198  0CAB               	rrf	??_main,f
  1602  0199  3EFF               	addlw	-1
  1603  019A  1D03               	skipz
  1604  019B  2997               	goto	u1705
  1605  019C  082B               	movf	??_main,w
  1606  019D  00AC               	movwf	??_main+1
  1607  019E  0EAC               	swapf	??_main+1,f
  1608  019F  0817               	movf	23,w	;volatile
  1609  01A0  062C               	xorwf	??_main+1,w
  1610  01A1  39EF               	andlw	-17
  1611  01A2  062C               	xorwf	??_main+1,w
  1612  01A3  0097               	movwf	23	;volatile
  1613  01A4                     l1944:
  1614                           
  1615                           ;Proyecto2.c: 157:                             if(opcion == 50) {
  1616  01A4  3058               	movlw	low (STR_12| (0+32768))
  1617  01A5  00A4               	movwf	String_Completo@var
  1618  01A6  3086               	movlw	high (STR_12| (0+32768))
  1619  01A7  00A5               	movwf	String_Completo@var+1
  1620  01A8  120A  158A  2550  120A  118A  	fcall	_String_Completo
  1621  01AD                     l1946:
  1622                           
  1623                           ;Proyecto2.c: 158:                                PORTA = 4;
  1624  01AD  30D9               	movlw	low (STR_9| (0+32768))
  1625  01AE  1283               	bcf	3,5	;RP0=0, select bank0
  1626  01AF  1303               	bcf	3,6	;RP1=0, select bank0
  1627  01B0  00A4               	movwf	String_Completo@var
  1628  01B1  3087               	movlw	high (STR_9| (0+32768))
  1629  01B2  00A5               	movwf	String_Completo@var+1
  1630  01B3  120A  158A  2550  120A  118A  	fcall	_String_Completo
  1631  01B8                     l1948:
  1632                           
  1633                           ;Proyecto2.c: 159:                                _delay((unsigned long)((3000)*(8000000
      +                          /4000.0)));
  1634  01B8  30C9               	movlw	low (STR_10| (0+32768))
  1635  01B9  1283               	bcf	3,5	;RP0=0, select bank0
  1636  01BA  1303               	bcf	3,6	;RP1=0, select bank0
  1637  01BB  00A4               	movwf	String_Completo@var
  1638  01BC  3087               	movlw	high (STR_10| (0+32768))
  1639  01BD  00A5               	movwf	String_Completo@var+1
  1640  01BE  120A  158A  2550  120A  118A  	fcall	_String_Completo
  1641  01C3                     l1950:
  1642                           
  1643                           ;Proyecto2.c: 160:                                PORTA = 0;
  1644  01C3  30B8               	movlw	low (STR_11| (0+32768))
  1645  01C4  1283               	bcf	3,5	;RP0=0, select bank0
  1646  01C5  1303               	bcf	3,6	;RP1=0, select bank0
  1647  01C6  00A4               	movwf	String_Completo@var
  1648  01C7  3087               	movlw	high (STR_11| (0+32768))
  1649  01C8  00A5               	movwf	String_Completo@var+1
  1650  01C9  120A  158A  2550  120A  118A  	fcall	_String_Completo
  1651                           
  1652                           ;Proyecto2.c: 161:                             }
  1653  01CE  3001               	movlw	1
  1654  01CF  1283               	bcf	3,5	;RP0=0, select bank0
  1655  01D0  1303               	bcf	3,6	;RP1=0, select bank0
  1656  01D1  00BA               	movwf	_flag
  1657  01D2  3000               	movlw	0
  1658  01D3  00BB               	movwf	_flag+1
  1659  01D4                     l1952:
  1660                           
  1661                           ;Proyecto2.c: 162:                             opcion = 0;
  1662  01D4  01B9               	clrf	_opcion
  1663  01D5                     l1954:	
  1664                           ;Proyecto2.c: 164: 
  1665                           
  1666  01D5  0839               	movf	_opcion,w
  1667  01D6  1903               	btfsc	3,2
  1668  01D7  29D9               	goto	u1711
  1669  01D8  29DA               	goto	u1710
  1670  01D9                     u1711:
  1671  01D9  29D5               	goto	l1954
  1672  01DA                     u1710:
  1673  01DA                     l1956:
  1674                           
  1675                           ;Proyecto2.c: 166:                             String_Completo("Elija una de las siguien
      +                          tes acciones:");
  1676  01DA  3031               	movlw	49
  1677  01DB  0639               	xorwf	_opcion,w
  1678  01DC  1D03               	btfss	3,2
  1679  01DD  29DF               	goto	u1721
  1680  01DE  29E0               	goto	u1720
  1681  01DF                     u1721:
  1682  01DF  2A05               	goto	l1966
  1683  01E0                     u1720:
  1684  01E0                     l1958:
  1685                           
  1686                           ;Proyecto2.c: 167:                             String_Completo("(1) Encender luces delan
      +                          teras");
  1687  01E0  0188               	clrf	8	;volatile
  1688  01E1                     l1960:
  1689                           
  1690                           ;Proyecto2.c: 168:                             String_Completo("(2) Encender luces trase
      +                          ras");
  1691  01E1  0808               	movf	8,w	;volatile
  1692  01E2  00AB               	movwf	??_main
  1693  01E3  1003               	clrc
  1694  01E4  0C2B               	rrf	??_main,w
  1695  01E5  3E80               	addlw	128
  1696  01E6  009B               	movwf	27	;volatile
  1697  01E7                     l1962:
  1698                           
  1699                           ;Proyecto2.c: 169:                             String_Completo("(3) Parpadeo");
  1700  01E7  1808               	btfsc	8,0	;volatile
  1701  01E8  29EA               	goto	u1731
  1702  01E9  29EE               	goto	u1730
  1703  01EA                     u1731:
  1704  01EA  1283               	bcf	3,5	;RP0=0, select bank0
  1705  01EB  1303               	bcf	3,6	;RP1=0, select bank0
  1706  01EC  169D               	bsf	29,5	;volatile
  1707  01ED  29F1               	goto	u1744
  1708  01EE                     u1730:
  1709  01EE  1283               	bcf	3,5	;RP0=0, select bank0
  1710  01EF  1303               	bcf	3,6	;RP1=0, select bank0
  1711  01F0  129D               	bcf	29,5	;volatile
  1712  01F1                     u1744:
  1713  01F1                     l1964:
  1714                           
  1715                           ;Proyecto2.c: 170: 
  1716  01F1  1683               	bsf	3,5	;RP0=1, select bank1
  1717  01F2  1303               	bcf	3,6	;RP1=0, select bank1
  1718  01F3  081E               	movf	30,w	;volatile
  1719  01F4  1283               	bcf	3,5	;RP0=0, select bank0
  1720  01F5  1303               	bcf	3,6	;RP1=0, select bank0
  1721  01F6  00AB               	movwf	??_main
  1722  01F7  3007               	movlw	7
  1723  01F8                     u1755:
  1724  01F8  1003               	clrc
  1725  01F9  0CAB               	rrf	??_main,f
  1726  01FA  3EFF               	addlw	-1
  1727  01FB  1D03               	skipz
  1728  01FC  29F8               	goto	u1755
  1729  01FD  082B               	movf	??_main,w
  1730  01FE  00AC               	movwf	??_main+1
  1731  01FF  0EAC               	swapf	??_main+1,f
  1732  0200  081D               	movf	29,w	;volatile
  1733  0201  062C               	xorwf	??_main+1,w
  1734  0202  39EF               	andlw	-17
  1735  0203  062C               	xorwf	??_main+1,w
  1736  0204  009D               	movwf	29	;volatile
  1737  0205                     l1966:
  1738                           
  1739                           ;Proyecto2.c: 172:                             opcion = 0;
  1740  0205  3032               	movlw	50
  1741  0206  0639               	xorwf	_opcion,w
  1742  0207  1D03               	btfss	3,2
  1743  0208  2A0A               	goto	u1761
  1744  0209  2A0B               	goto	u1760
  1745  020A                     u1761:
  1746  020A  2A31               	goto	l1976
  1747  020B                     u1760:
  1748  020B                     l1968:
  1749                           
  1750                           ;Proyecto2.c: 173: 
  1751  020B  3080               	movlw	128
  1752  020C  0088               	movwf	8	;volatile
  1753  020D                     l1970:
  1754                           
  1755                           ;Proyecto2.c: 174:                             while(!opcion){}
  1756  020D  0808               	movf	8,w	;volatile
  1757  020E  00AB               	movwf	??_main
  1758  020F  1003               	clrc
  1759  0210  0C2B               	rrf	??_main,w
  1760  0211  3E80               	addlw	128
  1761  0212  009B               	movwf	27	;volatile
  1762  0213                     l1972:
  1763                           
  1764                           ;Proyecto2.c: 175: 
  1765  0213  1808               	btfsc	8,0	;volatile
  1766  0214  2A16               	goto	u1771
  1767  0215  2A1A               	goto	u1770
  1768  0216                     u1771:
  1769  0216  1283               	bcf	3,5	;RP0=0, select bank0
  1770  0217  1303               	bcf	3,6	;RP1=0, select bank0
  1771  0218  169D               	bsf	29,5	;volatile
  1772  0219  2A1D               	goto	u1784
  1773  021A                     u1770:
  1774  021A  1283               	bcf	3,5	;RP0=0, select bank0
  1775  021B  1303               	bcf	3,6	;RP1=0, select bank0
  1776  021C  129D               	bcf	29,5	;volatile
  1777  021D                     u1784:
  1778  021D                     l1974:
  1779                           
  1780                           ;Proyecto2.c: 176:                             if(opcion == 49){
  1781  021D  1683               	bsf	3,5	;RP0=1, select bank1
  1782  021E  1303               	bcf	3,6	;RP1=0, select bank1
  1783  021F  081E               	movf	30,w	;volatile
  1784  0220  1283               	bcf	3,5	;RP0=0, select bank0
  1785  0221  1303               	bcf	3,6	;RP1=0, select bank0
  1786  0222  00AB               	movwf	??_main
  1787  0223  3007               	movlw	7
  1788  0224                     u1795:
  1789  0224  1003               	clrc
  1790  0225  0CAB               	rrf	??_main,f
  1791  0226  3EFF               	addlw	-1
  1792  0227  1D03               	skipz
  1793  0228  2A24               	goto	u1795
  1794  0229  082B               	movf	??_main,w
  1795  022A  00AC               	movwf	??_main+1
  1796  022B  0EAC               	swapf	??_main+1,f
  1797  022C  081D               	movf	29,w	;volatile
  1798  022D  062C               	xorwf	??_main+1,w
  1799  022E  39EF               	andlw	-17
  1800  022F  062C               	xorwf	??_main+1,w
  1801  0230  009D               	movwf	29	;volatile
  1802  0231                     l1976:
  1803                           
  1804                           ;Proyecto2.c: 178:                                 PORTAbits.RA6 = 1;
  1805  0231  3033               	movlw	51
  1806  0232  0639               	xorwf	_opcion,w
  1807  0233  1D03               	btfss	3,2
  1808  0234  2A36               	goto	u1801
  1809  0235  2A37               	goto	u1800
  1810  0236                     u1801:
  1811  0236  2A5D               	goto	l1986
  1812  0237                     u1800:
  1813  0237                     l1978:
  1814                           
  1815                           ;Proyecto2.c: 179:                                 _delay((unsigned long)((3000)*(800000
      +                          0/4000.0)));
  1816  0237  30FF               	movlw	255
  1817  0238  0088               	movwf	8	;volatile
  1818  0239                     l1980:
  1819                           
  1820                           ;Proyecto2.c: 180:                                 PORTA = 0;
  1821  0239  0808               	movf	8,w	;volatile
  1822  023A  00AB               	movwf	??_main
  1823  023B  1003               	clrc
  1824  023C  0C2B               	rrf	??_main,w
  1825  023D  3E80               	addlw	128
  1826  023E  009B               	movwf	27	;volatile
  1827  023F                     l1982:
  1828                           
  1829                           ;Proyecto2.c: 181:                             }
  1830  023F  1808               	btfsc	8,0	;volatile
  1831  0240  2A42               	goto	u1811
  1832  0241  2A46               	goto	u1810
  1833  0242                     u1811:
  1834  0242  1283               	bcf	3,5	;RP0=0, select bank0
  1835  0243  1303               	bcf	3,6	;RP1=0, select bank0
  1836  0244  169D               	bsf	29,5	;volatile
  1837  0245  2A49               	goto	u1824
  1838  0246                     u1810:
  1839  0246  1283               	bcf	3,5	;RP0=0, select bank0
  1840  0247  1303               	bcf	3,6	;RP1=0, select bank0
  1841  0248  129D               	bcf	29,5	;volatile
  1842  0249                     u1824:
  1843  0249                     l1984:
  1844                           
  1845                           ;Proyecto2.c: 182:                             if(opcion == 50){
  1846  0249  1683               	bsf	3,5	;RP0=1, select bank1
  1847  024A  1303               	bcf	3,6	;RP1=0, select bank1
  1848  024B  081E               	movf	30,w	;volatile
  1849  024C  1283               	bcf	3,5	;RP0=0, select bank0
  1850  024D  1303               	bcf	3,6	;RP1=0, select bank0
  1851  024E  00AB               	movwf	??_main
  1852  024F  3007               	movlw	7
  1853  0250                     u1835:
  1854  0250  1003               	clrc
  1855  0251  0CAB               	rrf	??_main,f
  1856  0252  3EFF               	addlw	-1
  1857  0253  1D03               	skipz
  1858  0254  2A50               	goto	u1835
  1859  0255  082B               	movf	??_main,w
  1860  0256  00AC               	movwf	??_main+1
  1861  0257  0EAC               	swapf	??_main+1,f
  1862  0258  081D               	movf	29,w	;volatile
  1863  0259  062C               	xorwf	??_main+1,w
  1864  025A  39EF               	andlw	-17
  1865  025B  062C               	xorwf	??_main+1,w
  1866  025C  009D               	movwf	29	;volatile
  1867  025D                     l1986:
  1868                           
  1869                           ;Proyecto2.c: 184:                                 PORTAbits.RA7 = 1;
  1870  025D  01B9               	clrf	_opcion
  1871  025E                     l1988:
  1872                           
  1873                           ;Proyecto2.c: 187:                             }
  1874  025E  3032               	movlw	50
  1875  025F  0639               	xorwf	_opcion,w
  1876  0260  1D03               	btfss	3,2
  1877  0261  2A63               	goto	u1841
  1878  0262  2A64               	goto	u1840
  1879  0263                     u1841:
  1880  0263  2B0E               	goto	l2024
  1881  0264                     u1840:
  1882  0264                     l1990:
  1883                           
  1884                           ;Proyecto2.c: 188:                             if(opcion == 51){
  1885  0264  3032               	movlw	low (STR_16| (0+32768))
  1886  0265  00A4               	movwf	String_Completo@var
  1887  0266  3086               	movlw	high (STR_16| (0+32768))
  1888  0267  00A5               	movwf	String_Completo@var+1
  1889  0268  120A  158A  2550  120A  118A  	fcall	_String_Completo
  1890                           
  1891                           ;Proyecto2.c: 189:                                 PORTA = 0xF0;
  1892  026D  3004               	movlw	low (STR_17| (0+32768))
  1893  026E  1283               	bcf	3,5	;RP0=0, select bank0
  1894  026F  1303               	bcf	3,6	;RP1=0, select bank0
  1895  0270  00A4               	movwf	String_Completo@var
  1896  0271  3088               	movlw	high (STR_17| (0+32768))
  1897  0272  00A5               	movwf	String_Completo@var+1
  1898  0273  120A  158A  2550  120A  118A  	fcall	_String_Completo
  1899                           
  1900                           ;Proyecto2.c: 190:                                 _delay((unsigned long)((500)*(8000000
      +                          /4000.0)));
  1901  0278  30E8               	movlw	low (STR_18| (0+32768))
  1902  0279  1283               	bcf	3,5	;RP0=0, select bank0
  1903  027A  1303               	bcf	3,6	;RP1=0, select bank0
  1904  027B  00A4               	movwf	String_Completo@var
  1905  027C  3087               	movlw	high (STR_18| (0+32768))
  1906  027D  00A5               	movwf	String_Completo@var+1
  1907  027E  120A  158A  2550  120A  118A  	fcall	_String_Completo
  1908                           
  1909                           ;Proyecto2.c: 191:                                 PORTA = 0;
  1910  0283  3069               	movlw	low (STR_19| (0+32768))
  1911  0284  1283               	bcf	3,5	;RP0=0, select bank0
  1912  0285  1303               	bcf	3,6	;RP1=0, select bank0
  1913  0286  00A4               	movwf	String_Completo@var
  1914  0287  3087               	movlw	high (STR_19| (0+32768))
  1915  0288  00A5               	movwf	String_Completo@var+1
  1916  0289  120A  158A  2550  120A  118A  	fcall	_String_Completo
  1917                           
  1918                           ;Proyecto2.c: 192:                                 _delay((unsigned long)((500)*(8000000
      +                          /4000.0)));
  1919  028E  3050               	movlw	low (STR_20| (0+32768))
  1920  028F  1283               	bcf	3,5	;RP0=0, select bank0
  1921  0290  1303               	bcf	3,6	;RP1=0, select bank0
  1922  0291  00A4               	movwf	String_Completo@var
  1923  0292  3087               	movlw	high (STR_20| (0+32768))
  1924  0293  00A5               	movwf	String_Completo@var+1
  1925  0294  120A  158A  2550  120A  118A  	fcall	_String_Completo
  1926  0299                     l1992:
  1927                           
  1928                           ;Proyecto2.c: 194:                                 _delay((unsigned long)((500)*(8000000
      +                          /4000.0)));
  1929  0299  3001               	movlw	1
  1930  029A  1283               	bcf	3,5	;RP0=0, select bank0
  1931  029B  1303               	bcf	3,6	;RP1=0, select bank0
  1932  029C  00BA               	movwf	_flag
  1933  029D  3000               	movlw	0
  1934  029E  00BB               	movwf	_flag+1
  1935  029F                     l1994:
  1936                           
  1937                           ;Proyecto2.c: 195:                                 PORTA = 0;
  1938  029F  01B9               	clrf	_opcion
  1939  02A0                     l1996:	
  1940                           ;Proyecto2.c: 197:                                 PORTA = 0xF0;
  1941                           
  1942  02A0  0839               	movf	_opcion,w
  1943  02A1  1903               	btfsc	3,2
  1944  02A2  2AA4               	goto	u1851
  1945  02A3  2AA5               	goto	u1850
  1946  02A4                     u1851:
  1947  02A4  2AA0               	goto	l1996
  1948  02A5                     u1850:
  1949  02A5                     l1998:
  1950                           
  1951                           ;Proyecto2.c: 198:                                 _delay((unsigned long)((500)*(8000000
      +                          /4000.0)));
  1952  02A5  3034               	movlw	52
  1953  02A6  0639               	xorwf	_opcion,w
  1954  02A7  1D03               	btfss	3,2
  1955  02A8  2AAA               	goto	u1861
  1956  02A9  2AAB               	goto	u1860
  1957  02AA                     u1861:
  1958  02AA  2ABF               	goto	l2004
  1959  02AB                     u1860:
  1960  02AB                     l2000:
  1961                           
  1962                           ;Proyecto2.c: 199:                                 PORTA = 0;
  1963  02AB  3002               	movlw	2
  1964  02AC  0085               	movwf	5	;volatile
  1965                           
  1966                           ;Proyecto2.c: 200:                                 _delay((unsigned long)((500)*(8000000
      +                          /4000.0)));
  1967  02AD  3004               	movlw	4
  1968  02AE  1283               	bcf	3,5	;RP0=0, select bank0
  1969  02AF  1303               	bcf	3,6	;RP1=0, select bank0
  1970  02B0  00AD               	movwf	??_main+2
  1971  02B1  308E               	movlw	142
  1972  02B2  00AC               	movwf	??_main+1
  1973  02B3  3011               	movlw	17
  1974  02B4  00AB               	movwf	??_main
  1975  02B5                     u2327:
  1976  02B5  0BAB               	decfsz	??_main,f
  1977  02B6  2AB5               	goto	u2327
  1978  02B7  0BAC               	decfsz	??_main+1,f
  1979  02B8  2AB5               	goto	u2327
  1980  02B9  0BAD               	decfsz	??_main+2,f
  1981  02BA  2AB5               	goto	u2327
  1982  02BB  2ABC               	nop2
  1983  02BC                     l2002:
  1984                           
  1985                           ;Proyecto2.c: 201:                                 PORTA = 0xF0;
  1986  02BC  1283               	bcf	3,5	;RP0=0, select bank0
  1987  02BD  1303               	bcf	3,6	;RP1=0, select bank0
  1988  02BE  0185               	clrf	5	;volatile
  1989  02BF                     l2004:
  1990                           
  1991                           ;Proyecto2.c: 204:                             }
  1992  02BF  3033               	movlw	51
  1993  02C0  0639               	xorwf	_opcion,w
  1994  02C1  1D03               	btfss	3,2
  1995  02C2  2AC4               	goto	u1871
  1996  02C3  2AC5               	goto	u1870
  1997  02C4                     u1871:
  1998  02C4  2AD9               	goto	l2010
  1999  02C5                     u1870:
  2000  02C5                     l2006:
  2001                           
  2002                           ;Proyecto2.c: 205:                             opcion = 0;
  2003  02C5  3001               	movlw	1
  2004  02C6  0085               	movwf	5	;volatile
  2005                           
  2006                           ;Proyecto2.c: 206:                         }
  2007  02C7  3004               	movlw	4
  2008  02C8  1283               	bcf	3,5	;RP0=0, select bank0
  2009  02C9  1303               	bcf	3,6	;RP1=0, select bank0
  2010  02CA  00AD               	movwf	??_main+2
  2011  02CB  308E               	movlw	142
  2012  02CC  00AC               	movwf	??_main+1
  2013  02CD  3011               	movlw	17
  2014  02CE  00AB               	movwf	??_main
  2015  02CF                     u2337:
  2016  02CF  0BAB               	decfsz	??_main,f
  2017  02D0  2ACF               	goto	u2337
  2018  02D1  0BAC               	decfsz	??_main+1,f
  2019  02D2  2ACF               	goto	u2337
  2020  02D3  0BAD               	decfsz	??_main+2,f
  2021  02D4  2ACF               	goto	u2337
  2022  02D5  2AD6               	nop2
  2023  02D6                     l2008:
  2024                           
  2025                           ;Proyecto2.c: 207: 
  2026  02D6  1283               	bcf	3,5	;RP0=0, select bank0
  2027  02D7  1303               	bcf	3,6	;RP1=0, select bank0
  2028  02D8  0185               	clrf	5	;volatile
  2029  02D9                     l2010:
  2030                           
  2031                           ;Proyecto2.c: 209:                             flag = 1;
  2032  02D9  3031               	movlw	49
  2033  02DA  0639               	xorwf	_opcion,w
  2034  02DB  1D03               	btfss	3,2
  2035  02DC  2ADE               	goto	u1881
  2036  02DD  2ADF               	goto	u1880
  2037  02DE                     u1881:
  2038  02DE  2AF3               	goto	l2016
  2039  02DF                     u1880:
  2040  02DF                     l2012:
  2041                           
  2042                           ;Proyecto2.c: 210:                             ADCON0bits.CHS = 7;
  2043  02DF  3008               	movlw	8
  2044  02E0  0085               	movwf	5	;volatile
  2045                           
  2046                           ;Proyecto2.c: 211:                             _delay((unsigned long)((50)*(8000000/4000
      +                          000.0)));
  2047  02E1  301F               	movlw	31
  2048  02E2  1283               	bcf	3,5	;RP0=0, select bank0
  2049  02E3  1303               	bcf	3,6	;RP1=0, select bank0
  2050  02E4  00AD               	movwf	??_main+2
  2051  02E5  3071               	movlw	113
  2052  02E6  00AC               	movwf	??_main+1
  2053  02E7  301D               	movlw	29
  2054  02E8  00AB               	movwf	??_main
  2055  02E9                     u2347:
  2056  02E9  0BAB               	decfsz	??_main,f
  2057  02EA  2AE9               	goto	u2347
  2058  02EB  0BAC               	decfsz	??_main+1,f
  2059  02EC  2AE9               	goto	u2347
  2060  02ED  0BAD               	decfsz	??_main+2,f
  2061  02EE  2AE9               	goto	u2347
  2062  02EF  2AF0               	nop2
  2063  02F0                     l2014:
  2064                           
  2065                           ;Proyecto2.c: 212:                             ADCON0bits.GO = 1;
  2066  02F0  1283               	bcf	3,5	;RP0=0, select bank0
  2067  02F1  1303               	bcf	3,6	;RP1=0, select bank0
  2068  02F2  0185               	clrf	5	;volatile
  2069  02F3                     l2016:
  2070                           
  2071                           ;Proyecto2.c: 214:                             valor_pot = ADRESH;
  2072  02F3  3032               	movlw	50
  2073  02F4  0639               	xorwf	_opcion,w
  2074  02F5  1D03               	btfss	3,2
  2075  02F6  2AF8               	goto	u1891
  2076  02F7  2AF9               	goto	u1890
  2077  02F8                     u1891:
  2078  02F8  2B0D               	goto	l2022
  2079  02F9                     u1890:
  2080  02F9                     l2018:
  2081                           
  2082                           ;Proyecto2.c: 215:                             _delay((unsigned long)((50)*(8000000/4000
      +                          000.0)));
  2083  02F9  3004               	movlw	4
  2084  02FA  0085               	movwf	5	;volatile
  2085                           
  2086                           ;Proyecto2.c: 216: 
  2087  02FB  301F               	movlw	31
  2088  02FC  1283               	bcf	3,5	;RP0=0, select bank0
  2089  02FD  1303               	bcf	3,6	;RP1=0, select bank0
  2090  02FE  00AD               	movwf	??_main+2
  2091  02FF  3071               	movlw	113
  2092  0300  00AC               	movwf	??_main+1
  2093  0301  301D               	movlw	29
  2094  0302  00AB               	movwf	??_main
  2095  0303                     u2357:
  2096  0303  0BAB               	decfsz	??_main,f
  2097  0304  2B03               	goto	u2357
  2098  0305  0BAC               	decfsz	??_main+1,f
  2099  0306  2B03               	goto	u2357
  2100  0307  0BAD               	decfsz	??_main+2,f
  2101  0308  2B03               	goto	u2357
  2102  0309  2B0A               	nop2
  2103  030A                     l2020:
  2104                           
  2105                           ;Proyecto2.c: 217:                             var_temp = valor_pot;
  2106  030A  1283               	bcf	3,5	;RP0=0, select bank0
  2107  030B  1303               	bcf	3,6	;RP1=0, select bank0
  2108  030C  0185               	clrf	5	;volatile
  2109  030D                     l2022:
  2110                           
  2111                           ;Proyecto2.c: 219:                             decenas_temp = var_temp%100;
  2112  030D  01B9               	clrf	_opcion
  2113  030E                     l2024:
  2114                           
  2115                           ;Proyecto2.c: 222: 
  2116  030E  3033               	movlw	51
  2117  030F  0639               	xorwf	_opcion,w
  2118  0310  1D03               	btfss	3,2
  2119  0311  2B13               	goto	u1901
  2120  0312  2B14               	goto	u1900
  2121  0313                     u1901:
  2122  0313  2C01               	goto	l2078
  2123  0314                     u1900:
  2124  0314                     l2026:
  2125                           
  2126                           ;Proyecto2.c: 223:                             String_Completo("Valor del potenciometro:
      +                          ");
  2127  0314  3032               	movlw	low (STR_16| (0+32768))
  2128  0315  00A4               	movwf	String_Completo@var
  2129  0316  3086               	movlw	high (STR_16| (0+32768))
  2130  0317  00A5               	movwf	String_Completo@var+1
  2131  0318  120A  158A  2550  120A  118A  	fcall	_String_Completo
  2132                           
  2133                           ;Proyecto2.c: 224:                             TXREG = decimal(centenas);
  2134  031D  30E2               	movlw	low (STR_22| (0+32768))
  2135  031E  1283               	bcf	3,5	;RP0=0, select bank0
  2136  031F  1303               	bcf	3,6	;RP1=0, select bank0
  2137  0320  00A4               	movwf	String_Completo@var
  2138  0321  3086               	movlw	high (STR_22| (0+32768))
  2139  0322  00A5               	movwf	String_Completo@var+1
  2140  0323  120A  158A  2550  120A  118A  	fcall	_String_Completo
  2141                           
  2142                           ;Proyecto2.c: 225:                             _delay((unsigned long)((10)*(8000000/4000
      +                          .0)));
  2143  0328  3000               	movlw	low (STR_23| (0+32768))
  2144  0329  1283               	bcf	3,5	;RP0=0, select bank0
  2145  032A  1303               	bcf	3,6	;RP1=0, select bank0
  2146  032B  00A4               	movwf	String_Completo@var
  2147  032C  3087               	movlw	high (STR_23| (0+32768))
  2148  032D  00A5               	movwf	String_Completo@var+1
  2149  032E  120A  158A  2550  120A  118A  	fcall	_String_Completo
  2150                           
  2151                           ;Proyecto2.c: 226:                             TXREG = decimal(decenas);
  2152  0333  30F7               	movlw	low (STR_24| (0+32768))
  2153  0334  1283               	bcf	3,5	;RP0=0, select bank0
  2154  0335  1303               	bcf	3,6	;RP1=0, select bank0
  2155  0336  00A4               	movwf	String_Completo@var
  2156  0337  3087               	movlw	high (STR_24| (0+32768))
  2157  0338  00A5               	movwf	String_Completo@var+1
  2158  0339  120A  158A  2550  120A  118A  	fcall	_String_Completo
  2159  033E                     l2028:
  2160                           
  2161                           ;Proyecto2.c: 228:                             TXREG = decimal(unidades);
  2162  033E  3001               	movlw	1
  2163  033F  1283               	bcf	3,5	;RP0=0, select bank0
  2164  0340  1303               	bcf	3,6	;RP1=0, select bank0
  2165  0341  00BA               	movwf	_flag
  2166  0342  3000               	movlw	0
  2167  0343  00BB               	movwf	_flag+1
  2168  0344                     l2030:
  2169                           
  2170                           ;Proyecto2.c: 229:                             _delay((unsigned long)((10)*(8000000/4000
      +                          .0)));
  2171  0344  01B9               	clrf	_opcion
  2172  0345                     l2032:	
  2173                           ;Proyecto2.c: 231:                             TXREG = 13;
  2174                           
  2175  0345  0839               	movf	_opcion,w
  2176  0346  1903               	btfsc	3,2
  2177  0347  2B49               	goto	u1911
  2178  0348  2B4A               	goto	u1910
  2179  0349                     u1911:
  2180  0349  2B45               	goto	l2032
  2181  034A                     u1910:
  2182  034A                     l2034:
  2183                           
  2184                           ;Proyecto2.c: 233:                             TXREG = 11;
  2185  034A  3031               	movlw	49
  2186  034B  0639               	xorwf	_opcion,w
  2187  034C  1D03               	btfss	3,2
  2188  034D  2B4F               	goto	u1921
  2189  034E  2B50               	goto	u1920
  2190  034F                     u1921:
  2191  034F  2B64               	goto	l2044
  2192  0350                     u1920:
  2193  0350                     l2036:
  2194                           
  2195                           ;Proyecto2.c: 234: 
  2196  0350  0185               	clrf	5	;volatile
  2197  0351                     l2038:
  2198                           
  2199                           ;Proyecto2.c: 235:                             opcion = 0;
  2200  0351  1705               	bsf	5,6	;volatile
  2201  0352                     l2040:
  2202                           
  2203                           ;Proyecto2.c: 236:                         }
  2204  0352  301F               	movlw	31
  2205  0353  1283               	bcf	3,5	;RP0=0, select bank0
  2206  0354  1303               	bcf	3,6	;RP1=0, select bank0
  2207  0355  00AD               	movwf	??_main+2
  2208  0356  3071               	movlw	113
  2209  0357  00AC               	movwf	??_main+1
  2210  0358  301D               	movlw	29
  2211  0359  00AB               	movwf	??_main
  2212  035A                     u2367:
  2213  035A  0BAB               	decfsz	??_main,f
  2214  035B  2B5A               	goto	u2367
  2215  035C  0BAC               	decfsz	??_main+1,f
  2216  035D  2B5A               	goto	u2367
  2217  035E  0BAD               	decfsz	??_main+2,f
  2218  035F  2B5A               	goto	u2367
  2219  0360  2B61               	nop2
  2220  0361                     l2042:
  2221                           
  2222                           ;Proyecto2.c: 237:                     }
  2223  0361  1283               	bcf	3,5	;RP0=0, select bank0
  2224  0362  1303               	bcf	3,6	;RP1=0, select bank0
  2225  0363  0185               	clrf	5	;volatile
  2226  0364                     l2044:
  2227                           
  2228                           ;Proyecto2.c: 239:                     if(opcion==53){
  2229  0364  3032               	movlw	50
  2230  0365  0639               	xorwf	_opcion,w
  2231  0366  1D03               	btfss	3,2
  2232  0367  2B69               	goto	u1931
  2233  0368  2B6A               	goto	u1930
  2234  0369                     u1931:
  2235  0369  2B7E               	goto	l2054
  2236  036A                     u1930:
  2237  036A                     l2046:
  2238                           
  2239                           ;Proyecto2.c: 240:                        String_Completo("Si desea ingresar a modo cont
      +                          rol USART presione 1");
  2240  036A  0185               	clrf	5	;volatile
  2241  036B                     l2048:
  2242                           
  2243                           ;Proyecto2.c: 241:                        flag = 0;
  2244  036B  1785               	bsf	5,7	;volatile
  2245  036C                     l2050:
  2246                           
  2247                           ;Proyecto2.c: 242:                     }
  2248  036C  301F               	movlw	31
  2249  036D  1283               	bcf	3,5	;RP0=0, select bank0
  2250  036E  1303               	bcf	3,6	;RP1=0, select bank0
  2251  036F  00AD               	movwf	??_main+2
  2252  0370  3071               	movlw	113
  2253  0371  00AC               	movwf	??_main+1
  2254  0372  301D               	movlw	29
  2255  0373  00AB               	movwf	??_main
  2256  0374                     u2377:
  2257  0374  0BAB               	decfsz	??_main,f
  2258  0375  2B74               	goto	u2377
  2259  0376  0BAC               	decfsz	??_main+1,f
  2260  0377  2B74               	goto	u2377
  2261  0378  0BAD               	decfsz	??_main+2,f
  2262  0379  2B74               	goto	u2377
  2263  037A  2B7B               	nop2
  2264  037B                     l2052:
  2265                           
  2266                           ;Proyecto2.c: 243:                 }
  2267  037B  1283               	bcf	3,5	;RP0=0, select bank0
  2268  037C  1303               	bcf	3,6	;RP1=0, select bank0
  2269  037D  0185               	clrf	5	;volatile
  2270  037E                     l2054:
  2271                           
  2272                           ;Proyecto2.c: 245: 
  2273  037E  3033               	movlw	51
  2274  037F  0639               	xorwf	_opcion,w
  2275  0380  1D03               	btfss	3,2
  2276  0381  2B83               	goto	u1941
  2277  0382  2B84               	goto	u1940
  2278  0383                     u1941:
  2279  0383  2C00               	goto	l2076
  2280  0384                     u1940:
  2281  0384                     l2056:
  2282                           
  2283                           ;Proyecto2.c: 246:         if (PORTBbits.RB4 == 0){
  2284  0384  30F0               	movlw	240
  2285  0385  0085               	movwf	5	;volatile
  2286                           
  2287                           ;Proyecto2.c: 247:             RB3_old = 1;
  2288  0386  3006               	movlw	6
  2289  0387  1283               	bcf	3,5	;RP0=0, select bank0
  2290  0388  1303               	bcf	3,6	;RP1=0, select bank0
  2291  0389  00AD               	movwf	??_main+2
  2292  038A  3013               	movlw	19
  2293  038B  00AC               	movwf	??_main+1
  2294  038C  30AD               	movlw	173
  2295  038D  00AB               	movwf	??_main
  2296  038E                     u2387:
  2297  038E  0BAB               	decfsz	??_main,f
  2298  038F  2B8E               	goto	u2387
  2299  0390  0BAC               	decfsz	??_main+1,f
  2300  0391  2B8E               	goto	u2387
  2301  0392  0BAD               	decfsz	??_main+2,f
  2302  0393  2B8E               	goto	u2387
  2303  0394                     l2058:
  2304                           
  2305                           ;Proyecto2.c: 248:         }
  2306  0394  1283               	bcf	3,5	;RP0=0, select bank0
  2307  0395  1303               	bcf	3,6	;RP1=0, select bank0
  2308  0396  0185               	clrf	5	;volatile
  2309  0397                     l2060:
  2310                           
  2311                           ;Proyecto2.c: 249: 
  2312  0397  3006               	movlw	6
  2313  0398  1283               	bcf	3,5	;RP0=0, select bank0
  2314  0399  1303               	bcf	3,6	;RP1=0, select bank0
  2315  039A  00AD               	movwf	??_main+2
  2316  039B  3013               	movlw	19
  2317  039C  00AC               	movwf	??_main+1
  2318  039D  30AD               	movlw	173
  2319  039E  00AB               	movwf	??_main
  2320  039F                     u2397:
  2321  039F  0BAB               	decfsz	??_main,f
  2322  03A0  2B9F               	goto	u2397
  2323  03A1  0BAC               	decfsz	??_main+1,f
  2324  03A2  2B9F               	goto	u2397
  2325  03A3  0BAD               	decfsz	??_main+2,f
  2326  03A4  2B9F               	goto	u2397
  2327  03A5                     l2062:
  2328                           
  2329                           ;Proyecto2.c: 250:         if(PORTBbits.RB4 == 1 && RB3_old==1){
  2330  03A5  30F0               	movlw	240
  2331  03A6  1283               	bcf	3,5	;RP0=0, select bank0
  2332  03A7  1303               	bcf	3,6	;RP1=0, select bank0
  2333  03A8  0085               	movwf	5	;volatile
  2334  03A9                     l2064:
  2335                           
  2336                           ;Proyecto2.c: 251:             eepromVal = temp_posicion1;
  2337  03A9  3006               	movlw	6
  2338  03AA  1283               	bcf	3,5	;RP0=0, select bank0
  2339  03AB  1303               	bcf	3,6	;RP1=0, select bank0
  2340  03AC  00AD               	movwf	??_main+2
  2341  03AD  3013               	movlw	19
  2342  03AE  00AC               	movwf	??_main+1
  2343  03AF  30AD               	movlw	173
  2344  03B0  00AB               	movwf	??_main
  2345  03B1                     u2407:
  2346  03B1  0BAB               	decfsz	??_main,f
  2347  03B2  2BB1               	goto	u2407
  2348  03B3  0BAC               	decfsz	??_main+1,f
  2349  03B4  2BB1               	goto	u2407
  2350  03B5  0BAD               	decfsz	??_main+2,f
  2351  03B6  2BB1               	goto	u2407
  2352                           
  2353                           ;Proyecto2.c: 252:             writeToEEPROM(eepromVal,addressEEPROM);
  2354  03B7  1283               	bcf	3,5	;RP0=0, select bank0
  2355  03B8  1303               	bcf	3,6	;RP1=0, select bank0
  2356  03B9  0185               	clrf	5	;volatile
  2357  03BA                     l2066:
  2358                           
  2359                           ;Proyecto2.c: 253:             if(addressEEPROM == 0x17){
  2360  03BA  3006               	movlw	6
  2361  03BB  1283               	bcf	3,5	;RP0=0, select bank0
  2362  03BC  1303               	bcf	3,6	;RP1=0, select bank0
  2363  03BD  00AD               	movwf	??_main+2
  2364  03BE  3013               	movlw	19
  2365  03BF  00AC               	movwf	??_main+1
  2366  03C0  30AD               	movlw	173
  2367  03C1  00AB               	movwf	??_main
  2368  03C2                     u2417:
  2369  03C2  0BAB               	decfsz	??_main,f
  2370  03C3  2BC2               	goto	u2417
  2371  03C4  0BAC               	decfsz	??_main+1,f
  2372  03C5  2BC2               	goto	u2417
  2373  03C6  0BAD               	decfsz	??_main+2,f
  2374  03C7  2BC2               	goto	u2417
  2375  03C8                     l2068:
  2376                           
  2377                           ;Proyecto2.c: 254:                 addressEEPROM = 0x10;
  2378  03C8  30F0               	movlw	240
  2379  03C9  1283               	bcf	3,5	;RP0=0, select bank0
  2380  03CA  1303               	bcf	3,6	;RP1=0, select bank0
  2381  03CB  0085               	movwf	5	;volatile
  2382  03CC                     l2070:
  2383                           
  2384                           ;Proyecto2.c: 255:             }else{
  2385  03CC  3006               	movlw	6
  2386  03CD  1283               	bcf	3,5	;RP0=0, select bank0
  2387  03CE  1303               	bcf	3,6	;RP1=0, select bank0
  2388  03CF  00AD               	movwf	??_main+2
  2389  03D0  3013               	movlw	19
  2390  03D1  00AC               	movwf	??_main+1
  2391  03D2  30AD               	movlw	173
  2392  03D3  00AB               	movwf	??_main
  2393  03D4                     u2427:
  2394  03D4  0BAB               	decfsz	??_main,f
  2395  03D5  2BD4               	goto	u2427
  2396  03D6  0BAC               	decfsz	??_main+1,f
  2397  03D7  2BD4               	goto	u2427
  2398  03D8  0BAD               	decfsz	??_main+2,f
  2399  03D9  2BD4               	goto	u2427
  2400  03DA                     l2072:
  2401                           
  2402                           ;Proyecto2.c: 256:                 addressEEPROM = addressEEPROM + 1;
  2403  03DA  1283               	bcf	3,5	;RP0=0, select bank0
  2404  03DB  1303               	bcf	3,6	;RP1=0, select bank0
  2405  03DC  0185               	clrf	5	;volatile
  2406                           
  2407                           ;Proyecto2.c: 257:             }
  2408  03DD  3006               	movlw	6
  2409  03DE  1283               	bcf	3,5	;RP0=0, select bank0
  2410  03DF  1303               	bcf	3,6	;RP1=0, select bank0
  2411  03E0  00AD               	movwf	??_main+2
  2412  03E1  3013               	movlw	19
  2413  03E2  00AC               	movwf	??_main+1
  2414  03E3  30AD               	movlw	173
  2415  03E4  00AB               	movwf	??_main
  2416  03E5                     u2437:
  2417  03E5  0BAB               	decfsz	??_main,f
  2418  03E6  2BE5               	goto	u2437
  2419  03E7  0BAC               	decfsz	??_main+1,f
  2420  03E8  2BE5               	goto	u2437
  2421  03E9  0BAD               	decfsz	??_main+2,f
  2422  03EA  2BE5               	goto	u2437
  2423                           
  2424                           ;Proyecto2.c: 258:             _delay((unsigned long)((10)*(8000000/4000.0)));
  2425  03EB  30F0               	movlw	240
  2426  03EC  1283               	bcf	3,5	;RP0=0, select bank0
  2427  03ED  1303               	bcf	3,6	;RP1=0, select bank0
  2428  03EE  0085               	movwf	5	;volatile
  2429                           
  2430                           ;Proyecto2.c: 259:             eepromVal = temp_posicion2;
  2431  03EF  3006               	movlw	6
  2432  03F0  1283               	bcf	3,5	;RP0=0, select bank0
  2433  03F1  1303               	bcf	3,6	;RP1=0, select bank0
  2434  03F2  00AD               	movwf	??_main+2
  2435  03F3  3013               	movlw	19
  2436  03F4  00AC               	movwf	??_main+1
  2437  03F5  30AD               	movlw	173
  2438  03F6  00AB               	movwf	??_main
  2439  03F7                     u2447:
  2440  03F7  0BAB               	decfsz	??_main,f
  2441  03F8  2BF7               	goto	u2447
  2442  03F9  0BAC               	decfsz	??_main+1,f
  2443  03FA  2BF7               	goto	u2447
  2444  03FB  0BAD               	decfsz	??_main+2,f
  2445  03FC  2BF7               	goto	u2447
  2446  03FD                     l2074:
  2447                           
  2448                           ;Proyecto2.c: 260:             writeToEEPROM(eepromVal,addressEEPROM);
  2449  03FD  1283               	bcf	3,5	;RP0=0, select bank0
  2450  03FE  1303               	bcf	3,6	;RP1=0, select bank0
  2451  03FF  0185               	clrf	5	;volatile
  2452  0400                     l2076:
  2453                           
  2454                           ;Proyecto2.c: 262:                 addressEEPROM = 0x10;
  2455  0400  01B9               	clrf	_opcion
  2456  0401                     l2078:
  2457                           
  2458                           ;Proyecto2.c: 265:             }
  2459  0401  3034               	movlw	52
  2460  0402  0639               	xorwf	_opcion,w
  2461  0403  1D03               	btfss	3,2
  2462  0404  2C06               	goto	u1951
  2463  0405  2C07               	goto	u1950
  2464  0406                     u1951:
  2465  0406  2CEA               	goto	l2126
  2466  0407                     u1950:
  2467  0407                     l2080:
  2468                           
  2469                           ;Proyecto2.c: 266:             RB3_old = 0;
  2470  0407  3001               	movlw	1
  2471  0408  00BA               	movwf	_flag
  2472  0409  3000               	movlw	0
  2473  040A  00BB               	movwf	_flag+1
  2474  040B                     l2082:
  2475                           
  2476                           ;Proyecto2.c: 267:         }
  2477  040B  081F               	movf	31,w	;volatile
  2478  040C  39C3               	andlw	-61
  2479  040D  381C               	iorlw	28
  2480  040E  009F               	movwf	31	;volatile
  2481  040F                     l2084:
  2482                           
  2483                           ;Proyecto2.c: 268:     }
  2484  040F  3020               	movlw	32
  2485  0410  1283               	bcf	3,5	;RP0=0, select bank0
  2486  0411  1303               	bcf	3,6	;RP1=0, select bank0
  2487  0412  00AB               	movwf	??_main
  2488  0413                     u2457:
  2489  0413  0BAB               	decfsz	??_main,f
  2490  0414  2C13               	goto	u2457
  2491  0415  0000               	nop
  2492  0416                     l2086:
  2493                           
  2494                           ;Proyecto2.c: 269:     return;
  2495  0416  1283               	bcf	3,5	;RP0=0, select bank0
  2496  0417  1303               	bcf	3,6	;RP1=0, select bank0
  2497  0418  149F               	bsf	31,1	;volatile
  2498  0419                     l2088:
  2499                           
  2500                           ;Proyecto2.c: 270: }
  2501  0419  3020               	movlw	32
  2502  041A  1283               	bcf	3,5	;RP0=0, select bank0
  2503  041B  1303               	bcf	3,6	;RP1=0, select bank0
  2504  041C  00AB               	movwf	??_main
  2505  041D                     u2467:
  2506  041D  0BAB               	decfsz	??_main,f
  2507  041E  2C1D               	goto	u2467
  2508  041F  0000               	nop
  2509  0420                     l2090:
  2510                           
  2511                           ;Proyecto2.c: 271: 
  2512  0420  1283               	bcf	3,5	;RP0=0, select bank0
  2513  0421  1303               	bcf	3,6	;RP1=0, select bank0
  2514  0422  081E               	movf	30,w	;volatile
  2515  0423  00AB               	movwf	??_main
  2516  0424  082B               	movf	??_main,w
  2517  0425  00B6               	movwf	_valor_pot
  2518  0426                     l2092:
  2519                           
  2520                           ;Proyecto2.c: 272: 
  2521  0426  3020               	movlw	32
  2522  0427  1283               	bcf	3,5	;RP0=0, select bank0
  2523  0428  1303               	bcf	3,6	;RP1=0, select bank0
  2524  0429  00AB               	movwf	??_main
  2525  042A                     u2477:
  2526  042A  0BAB               	decfsz	??_main,f
  2527  042B  2C2A               	goto	u2477
  2528  042C  0000               	nop
  2529  042D                     l2094:
  2530                           
  2531                           ;Proyecto2.c: 274: 
  2532  042D  1283               	bcf	3,5	;RP0=0, select bank0
  2533  042E  1303               	bcf	3,6	;RP1=0, select bank0
  2534  042F  0836               	movf	_valor_pot,w
  2535  0430  00AB               	movwf	??_main
  2536  0431  082B               	movf	??_main,w
  2537  0432  00B5               	movwf	_var_temp
  2538  0433                     l2096:
  2539                           
  2540                           ;Proyecto2.c: 275: void __attribute__((picinterrupt(("")))) isr(void){
  2541  0433  3064               	movlw	100
  2542  0434  00A0               	movwf	___awdiv@divisor
  2543  0435  3000               	movlw	0
  2544  0436  00A1               	movwf	___awdiv@divisor+1
  2545  0437  0835               	movf	_var_temp,w
  2546  0438  00AB               	movwf	??_main
  2547  0439  01AC               	clrf	??_main+1
  2548  043A  082B               	movf	??_main,w
  2549  043B  00A2               	movwf	___awdiv@dividend
  2550  043C  082C               	movf	??_main+1,w
  2551  043D  00A3               	movwf	___awdiv@dividend+1
  2552  043E  120A  158A  2602  120A  118A  	fcall	___awdiv
  2553  0443  1283               	bcf	3,5	;RP0=0, select bank0
  2554  0444  1303               	bcf	3,6	;RP1=0, select bank0
  2555  0445  0820               	movf	?___awdiv,w
  2556  0446  00AD               	movwf	??_main+2
  2557  0447  082D               	movf	??_main+2,w
  2558  0448  00B4               	movwf	_centenas
  2559  0449                     l2098:
  2560                           
  2561                           ;Proyecto2.c: 276: 
  2562  0449  3064               	movlw	100
  2563  044A  00A0               	movwf	___awmod@divisor
  2564  044B  3000               	movlw	0
  2565  044C  00A1               	movwf	___awmod@divisor+1
  2566  044D  0835               	movf	_var_temp,w
  2567  044E  00AB               	movwf	??_main
  2568  044F  01AC               	clrf	??_main+1
  2569  0450  082B               	movf	??_main,w
  2570  0451  00A2               	movwf	___awmod@dividend
  2571  0452  082C               	movf	??_main+1,w
  2572  0453  00A3               	movwf	___awmod@dividend+1
  2573  0454  120A  158A  25A7  120A  118A  	fcall	___awmod
  2574  0459  1283               	bcf	3,5	;RP0=0, select bank0
  2575  045A  1303               	bcf	3,6	;RP1=0, select bank0
  2576  045B  0820               	movf	?___awmod,w
  2577  045C  00AD               	movwf	??_main+2
  2578  045D  082D               	movf	??_main+2,w
  2579  045E  00B2               	movwf	_decenas_temp
  2580  045F                     l2100:
  2581                           
  2582                           ;Proyecto2.c: 277:     if (PIR1bits.RCIF){
  2583  045F  300A               	movlw	10
  2584  0460  00A0               	movwf	___awdiv@divisor
  2585  0461  3000               	movlw	0
  2586  0462  00A1               	movwf	___awdiv@divisor+1
  2587  0463  0832               	movf	_decenas_temp,w
  2588  0464  00AB               	movwf	??_main
  2589  0465  01AC               	clrf	??_main+1
  2590  0466  082B               	movf	??_main,w
  2591  0467  00A2               	movwf	___awdiv@dividend
  2592  0468  082C               	movf	??_main+1,w
  2593  0469  00A3               	movwf	___awdiv@dividend+1
  2594  046A  120A  158A  2602  120A  118A  	fcall	___awdiv
  2595  046F  1283               	bcf	3,5	;RP0=0, select bank0
  2596  0470  1303               	bcf	3,6	;RP1=0, select bank0
  2597  0471  0820               	movf	?___awdiv,w
  2598  0472  00AD               	movwf	??_main+2
  2599  0473  082D               	movf	??_main+2,w
  2600  0474  00B3               	movwf	_decenas
  2601  0475                     l2102:
  2602                           
  2603                           ;Proyecto2.c: 278:         opcion = RCREG;
  2604  0475  300A               	movlw	10
  2605  0476  00A0               	movwf	___awmod@divisor
  2606  0477  3000               	movlw	0
  2607  0478  00A1               	movwf	___awmod@divisor+1
  2608  0479  0835               	movf	_var_temp,w
  2609  047A  00AB               	movwf	??_main
  2610  047B  01AC               	clrf	??_main+1
  2611  047C  082B               	movf	??_main,w
  2612  047D  00A2               	movwf	___awmod@dividend
  2613  047E  082C               	movf	??_main+1,w
  2614  047F  00A3               	movwf	___awmod@dividend+1
  2615  0480  120A  158A  25A7  120A  118A  	fcall	___awmod
  2616  0485  1283               	bcf	3,5	;RP0=0, select bank0
  2617  0486  1303               	bcf	3,6	;RP1=0, select bank0
  2618  0487  0820               	movf	?___awmod,w
  2619  0488  00AD               	movwf	??_main+2
  2620  0489  082D               	movf	??_main+2,w
  2621  048A  00B1               	movwf	_unidades
  2622  048B                     l2104:
  2623                           
  2624                           ;Proyecto2.c: 280: 
  2625  048B  3037               	movlw	low (STR_25| (0+32768))
  2626  048C  00A4               	movwf	String_Completo@var
  2627  048D  3087               	movlw	high (STR_25| (0+32768))
  2628  048E  00A5               	movwf	String_Completo@var+1
  2629  048F  120A  158A  2550  120A  118A  	fcall	_String_Completo
  2630  0494                     l2106:
  2631                           
  2632                           ;Proyecto2.c: 281:     if (PIR1bits.ADIF){
  2633  0494  1283               	bcf	3,5	;RP0=0, select bank0
  2634  0495  1303               	bcf	3,6	;RP1=0, select bank0
  2635  0496  0834               	movf	_centenas,w
  2636  0497  120A  158A  24FE  120A  118A  	fcall	_decimal
  2637  049C  1283               	bcf	3,5	;RP0=0, select bank0
  2638  049D  1303               	bcf	3,6	;RP1=0, select bank0
  2639  049E  0099               	movwf	25	;volatile
  2640  049F                     l2108:
  2641                           
  2642                           ;Proyecto2.c: 282: 
  2643  049F  301A               	movlw	26
  2644  04A0  1283               	bcf	3,5	;RP0=0, select bank0
  2645  04A1  1303               	bcf	3,6	;RP1=0, select bank0
  2646  04A2  00AC               	movwf	??_main+1
  2647  04A3  30F7               	movlw	247
  2648  04A4  00AB               	movwf	??_main
  2649  04A5                     u2487:
  2650  04A5  0BAB               	decfsz	??_main,f
  2651  04A6  2CA5               	goto	u2487
  2652  04A7  0BAC               	decfsz	??_main+1,f
  2653  04A8  2CA5               	goto	u2487
  2654  04A9  2CAA               	nop2
  2655  04AA                     l2110:
  2656                           
  2657                           ;Proyecto2.c: 283:         if(ADCON0bits.CHS == 5) {
  2658  04AA  1283               	bcf	3,5	;RP0=0, select bank0
  2659  04AB  1303               	bcf	3,6	;RP1=0, select bank0
  2660  04AC  0833               	movf	_decenas,w
  2661  04AD  120A  158A  24FE  120A  118A  	fcall	_decimal
  2662  04B2  1283               	bcf	3,5	;RP0=0, select bank0
  2663  04B3  1303               	bcf	3,6	;RP1=0, select bank0
  2664  04B4  0099               	movwf	25	;volatile
  2665  04B5                     l2112:
  2666                           
  2667                           ;Proyecto2.c: 284:             PORTD = ADRESH;
  2668  04B5  301A               	movlw	26
  2669  04B6  1283               	bcf	3,5	;RP0=0, select bank0
  2670  04B7  1303               	bcf	3,6	;RP1=0, select bank0
  2671  04B8  00AC               	movwf	??_main+1
  2672  04B9  30F7               	movlw	247
  2673  04BA  00AB               	movwf	??_main
  2674  04BB                     u2497:
  2675  04BB  0BAB               	decfsz	??_main,f
  2676  04BC  2CBB               	goto	u2497
  2677  04BD  0BAC               	decfsz	??_main+1,f
  2678  04BE  2CBB               	goto	u2497
  2679  04BF  2CC0               	nop2
  2680  04C0                     l2114:
  2681                           
  2682                           ;Proyecto2.c: 285:             temp_posicion1 = PORTD;
  2683  04C0  1283               	bcf	3,5	;RP0=0, select bank0
  2684  04C1  1303               	bcf	3,6	;RP1=0, select bank0
  2685  04C2  0831               	movf	_unidades,w
  2686  04C3  120A  158A  24FE  120A  118A  	fcall	_decimal
  2687  04C8  1283               	bcf	3,5	;RP0=0, select bank0
  2688  04C9  1303               	bcf	3,6	;RP1=0, select bank0
  2689  04CA  0099               	movwf	25	;volatile
  2690  04CB                     l2116:
  2691                           
  2692                           ;Proyecto2.c: 286:             CCPR1L = (PORTD>>1) + 128;
  2693  04CB  301A               	movlw	26
  2694  04CC  1283               	bcf	3,5	;RP0=0, select bank0
  2695  04CD  1303               	bcf	3,6	;RP1=0, select bank0
  2696  04CE  00AC               	movwf	??_main+1
  2697  04CF  30F7               	movlw	247
  2698  04D0  00AB               	movwf	??_main
  2699  04D1                     u2507:
  2700  04D1  0BAB               	decfsz	??_main,f
  2701  04D2  2CD1               	goto	u2507
  2702  04D3  0BAC               	decfsz	??_main+1,f
  2703  04D4  2CD1               	goto	u2507
  2704  04D5  2CD6               	nop2
  2705  04D6                     l2118:
  2706                           
  2707                           ;Proyecto2.c: 288:             CCP1CONbits.DC1B0 = ADRESL>>7;}
  2708  04D6  300D               	movlw	13
  2709  04D7  1283               	bcf	3,5	;RP0=0, select bank0
  2710  04D8  1303               	bcf	3,6	;RP1=0, select bank0
  2711  04D9  0099               	movwf	25	;volatile
  2712  04DA                     l2120:
  2713                           
  2714                           ;Proyecto2.c: 289: 
  2715  04DA  301A               	movlw	26
  2716  04DB  1283               	bcf	3,5	;RP0=0, select bank0
  2717  04DC  1303               	bcf	3,6	;RP1=0, select bank0
  2718  04DD  00AC               	movwf	??_main+1
  2719  04DE  30F7               	movlw	247
  2720  04DF  00AB               	movwf	??_main
  2721  04E0                     u2517:
  2722  04E0  0BAB               	decfsz	??_main,f
  2723  04E1  2CE0               	goto	u2517
  2724  04E2  0BAC               	decfsz	??_main+1,f
  2725  04E3  2CE0               	goto	u2517
  2726  04E4  2CE5               	nop2
  2727  04E5                     l2122:
  2728                           
  2729                           ;Proyecto2.c: 290:         else if(ADCON0bits.CHS == 6){
  2730  04E5  300B               	movlw	11
  2731  04E6  1283               	bcf	3,5	;RP0=0, select bank0
  2732  04E7  1303               	bcf	3,6	;RP1=0, select bank0
  2733  04E8  0099               	movwf	25	;volatile
  2734  04E9  2899               	goto	l1896
  2735  04EA                     l2126:
  2736                           
  2737                           ;Proyecto2.c: 117:                                 CCPR2L = (PORTD>>1) + 128;
  2738  04EA  3035               	movlw	53
  2739  04EB  0639               	xorwf	_opcion,w
  2740  04EC  1D03               	btfss	3,2
  2741  04ED  2CEF               	goto	u1961
  2742  04EE  2CF0               	goto	u1960
  2743  04EF                     u1961:
  2744  04EF  289B               	goto	l1898
  2745  04F0                     u1960:
  2746  04F0                     l2128:
  2747                           
  2748                           ;Proyecto2.c: 296:         PIR1bits.ADIF = 0;
  2749  04F0  3035               	movlw	53
  2750  04F1  0639               	xorwf	_opcion,w
  2751  04F2  1D03               	btfss	3,2
  2752  04F3  2CF5               	goto	u1971
  2753  04F4  2CF6               	goto	u1970
  2754  04F5                     u1971:
  2755  04F5  2D03               	goto	l2134
  2756  04F6                     u1970:
  2757  04F6                     l2130:
  2758                           
  2759                           ;Proyecto2.c: 297:     }
  2760  04F6  3000               	movlw	low (STR_1| (0+32768))
  2761  04F7  00A4               	movwf	String_Completo@var
  2762  04F8  3086               	movlw	high (STR_1| (0+32768))
  2763  04F9  00A5               	movwf	String_Completo@var+1
  2764  04FA  120A  158A  2550  120A  118A  	fcall	_String_Completo
  2765  04FF                     l2132:
  2766                           
  2767                           ;Proyecto2.c: 298: 
  2768  04FF  1283               	bcf	3,5	;RP0=0, select bank0
  2769  0500  1303               	bcf	3,6	;RP1=0, select bank0
  2770  0501  01BA               	clrf	_flag
  2771  0502  01BB               	clrf	_flag+1
  2772  0503                     l2134:
  2773                           
  2774                           ;Proyecto2.c: 303:                 _delay((unsigned long)((350)*(8000000/4000.0)));
  2775  0503  1A06               	btfsc	6,4	;volatile
  2776  0504  2D06               	goto	u1981
  2777  0505  2D07               	goto	u1980
  2778  0506                     u1981:
  2779  0506  2D0B               	goto	l2138
  2780  0507                     u1980:
  2781  0507                     l2136:
  2782                           
  2783                           ;Proyecto2.c: 304:                 PORTA = 8;
  2784  0507  3001               	movlw	1
  2785  0508  00AE               	movwf	_RB3_old
  2786  0509  3000               	movlw	0
  2787  050A  00AF               	movwf	_RB3_old+1
  2788  050B                     l2138:
  2789                           
  2790                           ;Proyecto2.c: 307:                 PORTA = 2;
  2791  050B  1E06               	btfss	6,4	;volatile
  2792  050C  2D0E               	goto	u1991
  2793  050D  2D0F               	goto	u1990
  2794  050E                     u1991:
  2795  050E  2841               	goto	l1866
  2796  050F                     u1990:
  2797  050F                     l2140:
  2798  050F  032E               	decf	_RB3_old,w
  2799  0510  042F               	iorwf	_RB3_old+1,w
  2800  0511  1D03               	btfss	3,2
  2801  0512  2D14               	goto	u2001
  2802  0513  2D15               	goto	u2000
  2803  0514                     u2001:
  2804  0514  2841               	goto	l1866
  2805  0515                     u2000:
  2806  0515                     l2142:
  2807                           
  2808                           ;Proyecto2.c: 308:                 _delay((unsigned long)((350)*(8000000/4000.0)));
  2809  0515  0838               	movf	_temp_posicion1,w
  2810  0516  00AB               	movwf	??_main
  2811  0517  082B               	movf	??_main,w
  2812  0518  00B0               	movwf	_eepromVal
  2813  0519                     l2144:
  2814                           
  2815                           ;Proyecto2.c: 309:                 PORTA = 0;
  2816  0519  083C               	movf	_addressEEPROM,w
  2817  051A  00AB               	movwf	??_main
  2818  051B  082B               	movf	??_main,w
  2819  051C  00A0               	movwf	writeToEEPROM@address
  2820  051D  0830               	movf	_eepromVal,w
  2821  051E  120A  158A  24C0  120A  118A  	fcall	_writeToEEPROM
  2822  0523                     l2146:
  2823                           
  2824                           ;Proyecto2.c: 310:             }
  2825  0523  3017               	movlw	23
  2826  0524  1283               	bcf	3,5	;RP0=0, select bank0
  2827  0525  1303               	bcf	3,6	;RP1=0, select bank0
  2828  0526  063C               	xorwf	_addressEEPROM,w
  2829  0527  1D03               	btfss	3,2
  2830  0528  2D2A               	goto	u2011
  2831  0529  2D2B               	goto	u2010
  2832  052A                     u2011:
  2833  052A  2D30               	goto	l2150
  2834  052B                     u2010:
  2835  052B                     l2148:
  2836                           
  2837                           ;Proyecto2.c: 311:         }
  2838  052B  3010               	movlw	16
  2839  052C  00AB               	movwf	??_main
  2840  052D  082B               	movf	??_main,w
  2841  052E  00BC               	movwf	_addressEEPROM
  2842                           
  2843                           ;Proyecto2.c: 312: 
  2844  052F  2D35               	goto	l2152
  2845  0530                     l2150:
  2846                           
  2847                           ;Proyecto2.c: 313:         if(PORTBbits.RB1 == 0) {
  2848  0530  083C               	movf	_addressEEPROM,w
  2849  0531  3E01               	addlw	1
  2850  0532  00AB               	movwf	??_main
  2851  0533  082B               	movf	??_main,w
  2852  0534  00BC               	movwf	_addressEEPROM
  2853  0535                     l2152:
  2854                           
  2855                           ;Proyecto2.c: 315:                 PORTA = 9;
  2856  0535  301A               	movlw	26
  2857  0536  1283               	bcf	3,5	;RP0=0, select bank0
  2858  0537  1303               	bcf	3,6	;RP1=0, select bank0
  2859  0538  00AC               	movwf	??_main+1
  2860  0539  30F7               	movlw	247
  2861  053A  00AB               	movwf	??_main
  2862  053B                     u2527:
  2863  053B  0BAB               	decfsz	??_main,f
  2864  053C  2D3B               	goto	u2527
  2865  053D  0BAC               	decfsz	??_main+1,f
  2866  053E  2D3B               	goto	u2527
  2867  053F  2D40               	nop2
  2868  0540                     l2154:
  2869                           
  2870                           ;Proyecto2.c: 316:                 _delay((unsigned long)((350)*(8000000/4000.0)));
  2871  0540  1283               	bcf	3,5	;RP0=0, select bank0
  2872  0541  1303               	bcf	3,6	;RP1=0, select bank0
  2873  0542  0837               	movf	_temp_posicion2,w
  2874  0543  00AB               	movwf	??_main
  2875  0544  082B               	movf	??_main,w
  2876  0545  00B0               	movwf	_eepromVal
  2877  0546                     l2156:
  2878                           
  2879                           ;Proyecto2.c: 317:                 PORTA = 8;
  2880  0546  083C               	movf	_addressEEPROM,w
  2881  0547  00AB               	movwf	??_main
  2882  0548  082B               	movf	??_main,w
  2883  0549  00A0               	movwf	writeToEEPROM@address
  2884  054A  0830               	movf	_eepromVal,w
  2885  054B  120A  158A  24C0  120A  118A  	fcall	_writeToEEPROM
  2886  0550                     l2158:
  2887                           
  2888                           ;Proyecto2.c: 318:             }
  2889  0550  3017               	movlw	23
  2890  0551  1283               	bcf	3,5	;RP0=0, select bank0
  2891  0552  1303               	bcf	3,6	;RP1=0, select bank0
  2892  0553  063C               	xorwf	_addressEEPROM,w
  2893  0554  1D03               	btfss	3,2
  2894  0555  2D57               	goto	u2021
  2895  0556  2D58               	goto	u2020
  2896  0557                     u2021:
  2897  0557  2D5D               	goto	l2162
  2898  0558                     u2020:
  2899  0558                     l2160:
  2900                           
  2901                           ;Proyecto2.c: 319:             else {
  2902  0558  3010               	movlw	16
  2903  0559  00AB               	movwf	??_main
  2904  055A  082B               	movf	??_main,w
  2905  055B  00BC               	movwf	_addressEEPROM
  2906                           
  2907                           ;Proyecto2.c: 320:                 PORTA = 1;
  2908  055C  2D62               	goto	l2164
  2909  055D                     l2162:
  2910                           
  2911                           ;Proyecto2.c: 321:                 _delay((unsigned long)((350)*(8000000/4000.0)));
  2912  055D  083C               	movf	_addressEEPROM,w
  2913  055E  3E01               	addlw	1
  2914  055F  00AB               	movwf	??_main
  2915  0560  082B               	movf	??_main,w
  2916  0561  00BC               	movwf	_addressEEPROM
  2917  0562                     l2164:
  2918                           
  2919                           ;Proyecto2.c: 323:             }
  2920  0562  01AE               	clrf	_RB3_old
  2921  0563  01AF               	clrf	_RB3_old+1
  2922  0564  2841               	goto	l1866
  2923  0565  120A  118A  280C   	ljmp	start
  2924  0568                     __end_of_main:
  2925                           
  2926                           	psect	text1
  2927  0CC0                     __ptext1:	
  2928 ;; *************** function _writeToEEPROM *****************
  2929 ;; Defined at:
  2930 ;;		line 470 in file "Proyecto2.c"
  2931 ;; Parameters:    Size  Location     Type
  2932 ;;  data            1    wreg     unsigned char 
  2933 ;;  address         1    0[BANK0 ] unsigned char 
  2934 ;; Auto vars:     Size  Location     Type
  2935 ;;  data            1    1[BANK0 ] unsigned char 
  2936 ;; Return value:  Size  Location     Type
  2937 ;;                  1    wreg      void 
  2938 ;; Registers used:
  2939 ;;		wreg
  2940 ;; Tracked objects:
  2941 ;;		On entry : 0/0
  2942 ;;		On exit  : 0/0
  2943 ;;		Unchanged: 0/0
  2944 ;; Data sizes:     COMMON   BANK0   BANK1   BANK3   BANK2
  2945 ;;      Params:         0       1       0       0       0
  2946 ;;      Locals:         0       1       0       0       0
  2947 ;;      Temps:          0       0       0       0       0
  2948 ;;      Totals:         0       2       0       0       0
  2949 ;;Total ram usage:        2 bytes
  2950 ;; Hardware stack levels used:    1
  2951 ;; Hardware stack levels required when called:    2
  2952 ;; This function calls:
  2953 ;;		Nothing
  2954 ;; This function is called by:
  2955 ;;		_main
  2956 ;; This function uses a non-reentrant model
  2957 ;;
  2958                           
  2959                           
  2960                           ;psect for function _writeToEEPROM
  2961  0CC0                     _writeToEEPROM:
  2962                           
  2963                           ;incstack = 0
  2964                           ; Regs used in _writeToEEPROM: [wreg]
  2965                           ;writeToEEPROM@data stored from wreg
  2966  0CC0  1283               	bcf	3,5	;RP0=0, select bank0
  2967  0CC1  1303               	bcf	3,6	;RP1=0, select bank0
  2968  0CC2  00A1               	movwf	writeToEEPROM@data
  2969  0CC3                     l1756:
  2970                           
  2971                           ;Proyecto2.c: 471: 
  2972  0CC3  0820               	movf	writeToEEPROM@address,w
  2973  0CC4  1283               	bcf	3,5	;RP0=0, select bank2
  2974  0CC5  1703               	bsf	3,6	;RP1=1, select bank2
  2975  0CC6  008D               	movwf	13	;volatile
  2976                           
  2977                           ;Proyecto2.c: 472:     ADCON1bits.ADFM = 0;
  2978  0CC7  1283               	bcf	3,5	;RP0=0, select bank0
  2979  0CC8  1303               	bcf	3,6	;RP1=0, select bank0
  2980  0CC9  0821               	movf	writeToEEPROM@data,w
  2981  0CCA  1283               	bcf	3,5	;RP0=0, select bank2
  2982  0CCB  1703               	bsf	3,6	;RP1=1, select bank2
  2983  0CCC  008C               	movwf	12	;volatile
  2984  0CCD                     l1758:
  2985                           
  2986                           ;Proyecto2.c: 473:     ADCON1bits.VCFG0 = 0;
  2987  0CCD  1683               	bsf	3,5	;RP0=1, select bank3
  2988  0CCE  1703               	bsf	3,6	;RP1=1, select bank3
  2989  0CCF  138C               	bcf	12,7	;volsfr
  2990  0CD0                     l1760:
  2991                           
  2992                           ;Proyecto2.c: 474:     ADCON1bits.VCFG1 = 0;
  2993  0CD0  150C               	bsf	12,2	;volsfr
  2994  0CD1                     l1762:
  2995                           
  2996                           ;Proyecto2.c: 477:     ADCON0bits.CHS = 5;
  2997  0CD1  138B               	bcf	11,7	;volatile
  2998                           
  2999                           ;Proyecto2.c: 478:     _delay((unsigned long)((50)*(8000000/4000000.0)));
  3000  0CD2  3055               	movlw	85
  3001  0CD3  008D               	movwf	13	;volsfr
  3002                           
  3003                           ;Proyecto2.c: 479:     ADCON0bits.ADON = 1;
  3004  0CD4  30AA               	movlw	170
  3005  0CD5  008D               	movwf	13	;volsfr
  3006  0CD6                     l1764:
  3007                           
  3008                           ;Proyecto2.c: 481: 
  3009  0CD6  148C               	bsf	12,1	;volsfr
  3010  0CD7                     l1766:
  3011                           
  3012                           ;Proyecto2.c: 484:     CCP1CONbits.CCP1M = 0b00001100;
  3013  0CD7  110C               	bcf	12,2	;volsfr
  3014  0CD8                     l1768:
  3015                           
  3016                           ;Proyecto2.c: 485:     CCP2CONbits.CCP2M = 0b00001100;
  3017  0CD8  178B               	bsf	11,7	;volatile
  3018  0CD9                     l245:
  3019  0CD9  0008               	return
  3020  0CDA                     __end_of_writeToEEPROM:
  3021                           
  3022                           	psect	text2
  3023  0568                     __ptext2:	
  3024 ;; *************** function _setup *****************
  3025 ;; Defined at:
  3026 ;;		line 501 in file "Proyecto2.c"
  3027 ;; Parameters:    Size  Location     Type
  3028 ;;		None
  3029 ;; Auto vars:     Size  Location     Type
  3030 ;;		None
  3031 ;; Return value:  Size  Location     Type
  3032 ;;                  1    wreg      void 
  3033 ;; Registers used:
  3034 ;;		wreg, status,2, status,0
  3035 ;; Tracked objects:
  3036 ;;		On entry : 0/0
  3037 ;;		On exit  : 0/0
  3038 ;;		Unchanged: 0/0
  3039 ;; Data sizes:     COMMON   BANK0   BANK1   BANK3   BANK2
  3040 ;;      Params:         0       0       0       0       0
  3041 ;;      Locals:         0       0       0       0       0
  3042 ;;      Temps:          0       1       0       0       0
  3043 ;;      Totals:         0       1       0       0       0
  3044 ;;Total ram usage:        1 bytes
  3045 ;; Hardware stack levels used:    1
  3046 ;; Hardware stack levels required when called:    2
  3047 ;; This function calls:
  3048 ;;		Nothing
  3049 ;; This function is called by:
  3050 ;;		_main
  3051 ;; This function uses a non-reentrant model
  3052 ;;
  3053                           
  3054                           
  3055                           ;psect for function _setup
  3056  0568                     _setup:
  3057  0568                     l1568:	
  3058                           ;incstack = 0
  3059                           ; Regs used in _setup: [wreg+status,2+status,0]
  3060                           
  3061                           
  3062                           ;Proyecto2.c: 504: 
  3063  0568  1683               	bsf	3,5	;RP0=1, select bank1
  3064  0569  1303               	bcf	3,6	;RP1=0, select bank1
  3065  056A  170F               	bsf	15,6	;volatile
  3066                           
  3067                           ;Proyecto2.c: 505:     BAUDCTLbits.BRG16 = 1;
  3068  056B  168F               	bsf	15,5	;volatile
  3069                           
  3070                           ;Proyecto2.c: 506: 
  3071  056C  160F               	bsf	15,4	;volatile
  3072                           
  3073                           ;Proyecto2.c: 507:     SPBRG = 207;
  3074  056D  140F               	bsf	15,0	;volatile
  3075  056E                     l1570:
  3076                           
  3077                           ;Proyecto2.c: 510:     RCSTAbits.SPEN = 1;
  3078  056E  1683               	bsf	3,5	;RP0=1, select bank3
  3079  056F  1703               	bsf	3,6	;RP1=1, select bank3
  3080  0570  0189               	clrf	9	;volatile
  3081  0571                     l1572:
  3082                           
  3083                           ;Proyecto2.c: 511:     RCSTAbits.RX9 = 0;
  3084  0571  30E0               	movlw	224
  3085  0572  0088               	movwf	8	;volatile
  3086  0573                     l1574:
  3087                           
  3088                           ;Proyecto2.c: 513: 
  3089  0573  1683               	bsf	3,5	;RP0=1, select bank1
  3090  0574  1303               	bcf	3,6	;RP1=0, select bank1
  3091  0575  0185               	clrf	5	;volatile
  3092                           
  3093                           ;Proyecto2.c: 514:     TXSTAbits.TXEN = 1;
  3094  0576  30FF               	movlw	255
  3095  0577  0086               	movwf	6	;volatile
  3096                           
  3097                           ;Proyecto2.c: 515: 
  3098  0578  30B9               	movlw	185
  3099  0579  0087               	movwf	7	;volatile
  3100  057A                     l1576:
  3101                           
  3102                           ;Proyecto2.c: 516: 
  3103  057A  0188               	clrf	8	;volatile
  3104  057B                     l1578:
  3105                           
  3106                           ;Proyecto2.c: 517:     INTCONbits.GIE = 1;
  3107  057B  3007               	movlw	7
  3108  057C  0089               	movwf	9	;volatile
  3109  057D                     l1580:
  3110                           
  3111                           ;Proyecto2.c: 519:     INTCONbits.RBIE = 1;
  3112  057D  1381               	bcf	1,7	;volatile
  3113  057E                     l1582:
  3114                           
  3115                           ;Proyecto2.c: 520:     INTCONbits.RBIF = 0;
  3116  057E  30FF               	movlw	255
  3117  057F  0095               	movwf	21	;volatile
  3118  0580                     l1584:
  3119                           
  3120                           ;Proyecto2.c: 522:     INTCONbits.PEIE = 1;
  3121  0580  1283               	bcf	3,5	;RP0=0, select bank0
  3122  0581  1303               	bcf	3,6	;RP1=0, select bank0
  3123  0582  0185               	clrf	5	;volatile
  3124                           
  3125                           ;Proyecto2.c: 523:     PIE1bits.ADIE = 1;
  3126  0583  30FF               	movlw	255
  3127  0584  0086               	movwf	6	;volatile
  3128  0585                     l1586:
  3129                           
  3130                           ;Proyecto2.c: 524:     PIR1bits.ADIF = 0;
  3131  0585  0187               	clrf	7	;volatile
  3132  0586                     l1588:
  3133                           
  3134                           ;Proyecto2.c: 525: 
  3135  0586  0188               	clrf	8	;volatile
  3136  0587                     l1590:
  3137                           
  3138                           ;Proyecto2.c: 526:     PIE1bits.RCIE = 1;
  3139  0587  0189               	clrf	9	;volatile
  3140  0588                     l1592:
  3141                           
  3142                           ;Proyecto2.c: 529: 
  3143  0588  1683               	bsf	3,5	;RP0=1, select bank1
  3144  0589  1303               	bcf	3,6	;RP1=0, select bank1
  3145  058A  139F               	bcf	31,7	;volatile
  3146  058B                     l1594:
  3147                           
  3148                           ;Proyecto2.c: 530:     IOCB = 0xFF;
  3149  058B  121F               	bcf	31,4	;volatile
  3150  058C                     l1596:
  3151                           
  3152                           ;Proyecto2.c: 531:     INTCONbits.RBIF = 0;
  3153  058C  129F               	bcf	31,5	;volatile
  3154  058D                     l1598:
  3155                           
  3156                           ;Proyecto2.c: 533:     return;
  3157  058D  1283               	bcf	3,5	;RP0=0, select bank0
  3158  058E  1303               	bcf	3,6	;RP1=0, select bank0
  3159  058F  081F               	movf	31,w	;volatile
  3160  0590  393F               	andlw	-193
  3161  0591  3880               	iorlw	128
  3162  0592  009F               	movwf	31	;volatile
  3163  0593                     l1600:
  3164                           
  3165                           ;Proyecto2.c: 534: }
  3166  0593  081F               	movf	31,w	;volatile
  3167  0594  39C3               	andlw	-61
  3168  0595  3814               	iorlw	20
  3169  0596  009F               	movwf	31	;volatile
  3170  0597                     l1602:
  3171  0597  3020               	movlw	32
  3172  0598  1283               	bcf	3,5	;RP0=0, select bank0
  3173  0599  1303               	bcf	3,6	;RP1=0, select bank0
  3174  059A  00A0               	movwf	??_setup
  3175  059B                     u2537:
  3176  059B  0BA0               	decfsz	??_setup,f
  3177  059C  2D9B               	goto	u2537
  3178  059D  0000               	nop
  3179  059E                     l1604:
  3180  059E  1283               	bcf	3,5	;RP0=0, select bank0
  3181  059F  1303               	bcf	3,6	;RP1=0, select bank0
  3182  05A0  141F               	bsf	31,0	;volatile
  3183  05A1                     l1606:
  3184  05A1  30FA               	movlw	250
  3185  05A2  1683               	bsf	3,5	;RP0=1, select bank1
  3186  05A3  1303               	bcf	3,6	;RP1=0, select bank1
  3187  05A4  0092               	movwf	18	;volatile
  3188  05A5                     l1608:
  3189  05A5  303F               	movlw	-193
  3190  05A6  1283               	bcf	3,5	;RP0=0, select bank0
  3191  05A7  1303               	bcf	3,6	;RP1=0, select bank0
  3192  05A8  0597               	andwf	23,f	;volatile
  3193  05A9                     l1610:
  3194  05A9  0817               	movf	23,w	;volatile
  3195  05AA  39F0               	andlw	-16
  3196  05AB  380C               	iorlw	12
  3197  05AC  0097               	movwf	23	;volatile
  3198  05AD                     l1612:
  3199  05AD  081D               	movf	29,w	;volatile
  3200  05AE  39F0               	andlw	-16
  3201  05AF  380C               	iorlw	12
  3202  05B0  009D               	movwf	29	;volatile
  3203  05B1                     l1614:
  3204  05B1  300F               	movlw	15
  3205  05B2  0095               	movwf	21	;volatile
  3206  05B3                     l1616:
  3207  05B3  300F               	movlw	15
  3208  05B4  009B               	movwf	27	;volatile
  3209  05B5                     l1618:
  3210  05B5  30CF               	movlw	-49
  3211  05B6  0597               	andwf	23,f	;volatile
  3212  05B7                     l1620:
  3213  05B7  129D               	bcf	29,5	;volatile
  3214  05B8                     l1622:
  3215  05B8  121D               	bcf	29,4	;volatile
  3216  05B9                     l1624:
  3217  05B9  108C               	bcf	12,1	;volatile
  3218  05BA                     l1626:
  3219  05BA  1492               	bsf	18,1	;volatile
  3220  05BB                     l1628:
  3221  05BB  1412               	bsf	18,0	;volatile
  3222  05BC                     l1630:
  3223  05BC  1512               	bsf	18,2	;volatile
  3224  05BD                     l251:
  3225  05BD  1C8C               	btfss	12,1	;volatile
  3226  05BE  2DC0               	goto	u1171
  3227  05BF  2DC1               	goto	u1170
  3228  05C0                     u1171:
  3229  05C0  2DBD               	goto	l251
  3230  05C1                     u1170:
  3231  05C1                     l253:
  3232  05C1  108C               	bcf	12,1	;volatile
  3233  05C2  1683               	bsf	3,5	;RP0=1, select bank1
  3234  05C3  1303               	bcf	3,6	;RP1=0, select bank1
  3235  05C4  1218               	bcf	24,4	;volatile
  3236  05C5  1518               	bsf	24,2	;volatile
  3237  05C6  1683               	bsf	3,5	;RP0=1, select bank3
  3238  05C7  1703               	bsf	3,6	;RP1=1, select bank3
  3239  05C8  1587               	bsf	7,3	;volatile
  3240  05C9                     l1632:
  3241  05C9  30CF               	movlw	207
  3242  05CA  1683               	bsf	3,5	;RP0=1, select bank1
  3243  05CB  1303               	bcf	3,6	;RP1=0, select bank1
  3244  05CC  0099               	movwf	25	;volatile
  3245  05CD                     l1634:
  3246  05CD  019A               	clrf	26	;volatile
  3247  05CE                     l1636:
  3248  05CE  1283               	bcf	3,5	;RP0=0, select bank0
  3249  05CF  1303               	bcf	3,6	;RP1=0, select bank0
  3250  05D0  1798               	bsf	24,7	;volatile
  3251  05D1                     l1638:
  3252  05D1  1318               	bcf	24,6	;volatile
  3253  05D2                     l1640:
  3254  05D2  1618               	bsf	24,4	;volatile
  3255  05D3                     l1642:
  3256  05D3  1683               	bsf	3,5	;RP0=1, select bank1
  3257  05D4  1303               	bcf	3,6	;RP1=0, select bank1
  3258  05D5  1698               	bsf	24,5	;volatile
  3259  05D6                     l1644:
  3260  05D6  178B               	bsf	11,7	;volatile
  3261  05D7                     l1646:
  3262  05D7  158B               	bsf	11,3	;volatile
  3263  05D8                     l1648:
  3264  05D8  100B               	bcf	11,0	;volatile
  3265  05D9                     l1650:
  3266  05D9  170B               	bsf	11,6	;volatile
  3267  05DA                     l1652:
  3268  05DA  170C               	bsf	12,6	;volatile
  3269  05DB                     l1654:
  3270  05DB  1283               	bcf	3,5	;RP0=0, select bank0
  3271  05DC  1303               	bcf	3,6	;RP1=0, select bank0
  3272  05DD  130C               	bcf	12,6	;volatile
  3273  05DE                     l1656:
  3274  05DE  1683               	bsf	3,5	;RP0=1, select bank1
  3275  05DF  1303               	bcf	3,6	;RP1=0, select bank1
  3276  05E0  168C               	bsf	12,5	;volatile
  3277  05E1                     l1658:
  3278  05E1  1283               	bcf	3,5	;RP0=0, select bank0
  3279  05E2  1303               	bcf	3,6	;RP1=0, select bank0
  3280  05E3  128C               	bcf	12,5	;volatile
  3281  05E4                     l1660:
  3282  05E4  30FF               	movlw	255
  3283  05E5  1683               	bsf	3,5	;RP0=1, select bank1
  3284  05E6  1303               	bcf	3,6	;RP1=0, select bank1
  3285  05E7  0096               	movwf	22	;volatile
  3286  05E8                     l1662:
  3287  05E8  100B               	bcf	11,0	;volatile
  3288  05E9                     l254:
  3289  05E9  0008               	return
  3290  05EA                     __end_of_setup:
  3291                           
  3292                           	psect	text3
  3293  0CFE                     __ptext3:	
  3294 ;; *************** function _decimal *****************
  3295 ;; Defined at:
  3296 ;;		line 435 in file "Proyecto2.c"
  3297 ;; Parameters:    Size  Location     Type
  3298 ;;  val             1    wreg     unsigned char 
  3299 ;; Auto vars:     Size  Location     Type
  3300 ;;  val             1    0[BANK0 ] unsigned char 
  3301 ;; Return value:  Size  Location     Type
  3302 ;;                  1    wreg      unsigned char 
  3303 ;; Registers used:
  3304 ;;		wreg, status,2, status,0
  3305 ;; Tracked objects:
  3306 ;;		On entry : 0/0
  3307 ;;		On exit  : 0/0
  3308 ;;		Unchanged: 0/0
  3309 ;; Data sizes:     COMMON   BANK0   BANK1   BANK3   BANK2
  3310 ;;      Params:         0       0       0       0       0
  3311 ;;      Locals:         0       1       0       0       0
  3312 ;;      Temps:          0       0       0       0       0
  3313 ;;      Totals:         0       1       0       0       0
  3314 ;;Total ram usage:        1 bytes
  3315 ;; Hardware stack levels used:    1
  3316 ;; Hardware stack levels required when called:    2
  3317 ;; This function calls:
  3318 ;;		Nothing
  3319 ;; This function is called by:
  3320 ;;		_main
  3321 ;; This function uses a non-reentrant model
  3322 ;;
  3323                           
  3324                           
  3325                           ;psect for function _decimal
  3326  0CFE                     _decimal:
  3327                           
  3328                           ;incstack = 0
  3329                           ; Regs used in _decimal: [wreg+status,2+status,0]
  3330                           ;decimal@val stored from wreg
  3331  0CFE  1283               	bcf	3,5	;RP0=0, select bank0
  3332  0CFF  1303               	bcf	3,6	;RP1=0, select bank0
  3333  0D00  00A0               	movwf	decimal@val
  3334  0D01                     l1678:
  3335                           
  3336                           ;Proyecto2.c: 436:  EECON1bits.RD = 1;
  3337  0D01  0820               	movf	decimal@val,w
  3338  0D02  1D03               	btfss	3,2
  3339  0D03  2D05               	goto	u1201
  3340  0D04  2D06               	goto	u1200
  3341  0D05                     u1201:
  3342  0D05  2D08               	goto	l1686
  3343  0D06                     u1200:
  3344  0D06                     l1680:
  3345                           
  3346                           ;Proyecto2.c: 437:  uint8_t data = EEDATA;
  3347  0D06  3030               	movlw	48
  3348  0D07  2D4F               	goto	l218
  3349  0D08                     l1686:
  3350  0D08  0320               	decf	decimal@val,w
  3351  0D09  1D03               	btfss	3,2
  3352  0D0A  2D0C               	goto	u1211
  3353  0D0B  2D0D               	goto	u1210
  3354  0D0C                     u1211:
  3355  0D0C  2D0F               	goto	l1694
  3356  0D0D                     u1210:
  3357  0D0D                     l1688:
  3358                           
  3359                           ;Proyecto2.c: 439: }
  3360  0D0D  3031               	movlw	49
  3361  0D0E  2D4F               	goto	l218
  3362  0D0F                     l1694:
  3363  0D0F  3002               	movlw	2
  3364  0D10  0620               	xorwf	decimal@val,w
  3365  0D11  1D03               	btfss	3,2
  3366  0D12  2D14               	goto	u1221
  3367  0D13  2D15               	goto	u1220
  3368  0D14                     u1221:
  3369  0D14  2D17               	goto	l1702
  3370  0D15                     u1220:
  3371  0D15                     l1696:
  3372                           
  3373                           ;Proyecto2.c: 441: 
  3374  0D15  3032               	movlw	50
  3375  0D16  2D4F               	goto	l218
  3376  0D17                     l1702:
  3377  0D17  3003               	movlw	3
  3378  0D18  0620               	xorwf	decimal@val,w
  3379  0D19  1D03               	btfss	3,2
  3380  0D1A  2D1C               	goto	u1231
  3381  0D1B  2D1D               	goto	u1230
  3382  0D1C                     u1231:
  3383  0D1C  2D1F               	goto	l1710
  3384  0D1D                     u1230:
  3385  0D1D                     l1704:
  3386                           
  3387                           ;Proyecto2.c: 443: 
  3388  0D1D  3033               	movlw	51
  3389  0D1E  2D4F               	goto	l218
  3390  0D1F                     l1710:
  3391  0D1F  3004               	movlw	4
  3392  0D20  0620               	xorwf	decimal@val,w
  3393  0D21  1D03               	btfss	3,2
  3394  0D22  2D24               	goto	u1241
  3395  0D23  2D25               	goto	u1240
  3396  0D24                     u1241:
  3397  0D24  2D27               	goto	l1718
  3398  0D25                     u1240:
  3399  0D25                     l1712:
  3400                           
  3401                           ;Proyecto2.c: 445: 
  3402  0D25  3034               	movlw	52
  3403  0D26  2D4F               	goto	l218
  3404  0D27                     l1718:
  3405  0D27  3005               	movlw	5
  3406  0D28  0620               	xorwf	decimal@val,w
  3407  0D29  1D03               	btfss	3,2
  3408  0D2A  2D2C               	goto	u1251
  3409  0D2B  2D2D               	goto	u1250
  3410  0D2C                     u1251:
  3411  0D2C  2D2F               	goto	l1726
  3412  0D2D                     u1250:
  3413  0D2D                     l1720:
  3414                           
  3415                           ;Proyecto2.c: 447:     OSCCONbits.IRCF2 =1 ;
  3416  0D2D  3035               	movlw	53
  3417  0D2E  2D4F               	goto	l218
  3418  0D2F                     l1726:
  3419  0D2F  3006               	movlw	6
  3420  0D30  0620               	xorwf	decimal@val,w
  3421  0D31  1D03               	btfss	3,2
  3422  0D32  2D34               	goto	u1261
  3423  0D33  2D35               	goto	u1260
  3424  0D34                     u1261:
  3425  0D34  2D37               	goto	l1734
  3426  0D35                     u1260:
  3427  0D35                     l1728:
  3428                           
  3429                           ;Proyecto2.c: 449:     OSCCONbits.IRCF0 =1 ;
  3430  0D35  3036               	movlw	54
  3431  0D36  2D4F               	goto	l218
  3432  0D37                     l1734:
  3433  0D37  3007               	movlw	7
  3434  0D38  0620               	xorwf	decimal@val,w
  3435  0D39  1D03               	btfss	3,2
  3436  0D3A  2D3C               	goto	u1271
  3437  0D3B  2D3D               	goto	u1270
  3438  0D3C                     u1271:
  3439  0D3C  2D3F               	goto	l1742
  3440  0D3D                     u1270:
  3441  0D3D                     l1736:
  3442                           
  3443                           ;Proyecto2.c: 451: 
  3444  0D3D  3037               	movlw	55
  3445  0D3E  2D4F               	goto	l218
  3446  0D3F                     l1742:
  3447  0D3F  3008               	movlw	8
  3448  0D40  0620               	xorwf	decimal@val,w
  3449  0D41  1D03               	btfss	3,2
  3450  0D42  2D44               	goto	u1281
  3451  0D43  2D45               	goto	u1280
  3452  0D44                     u1281:
  3453  0D44  2D47               	goto	l1750
  3454  0D45                     u1280:
  3455  0D45                     l1744:
  3456                           
  3457                           ;Proyecto2.c: 453:     ANSELH = 0x00;
  3458  0D45  3038               	movlw	56
  3459  0D46  2D4F               	goto	l218
  3460  0D47                     l1750:
  3461  0D47  3009               	movlw	9
  3462  0D48  0620               	xorwf	decimal@val,w
  3463  0D49  1D03               	btfss	3,2
  3464  0D4A  2D4C               	goto	u1291
  3465  0D4B  2D4D               	goto	u1290
  3466  0D4C                     u1291:
  3467  0D4C  2D4F               	goto	l231
  3468  0D4D                     u1290:
  3469  0D4D                     l1752:
  3470                           
  3471                           ;Proyecto2.c: 455: 
  3472  0D4D  3039               	movlw	57
  3473  0D4E  2D4F               	goto	l218
  3474  0D4F                     l231:
  3475  0D4F                     l218:
  3476  0D4F  0008               	return
  3477  0D50                     __end_of_decimal:
  3478                           
  3479                           	psect	text4
  3480  0DA7                     __ptext4:	
  3481 ;; *************** function ___awmod *****************
  3482 ;; Defined at:
  3483 ;;		line 5 in file "C:\Program Files\Microchip\xc8\v2.31\pic\sources\c90\common\awmod.c"
  3484 ;; Parameters:    Size  Location     Type
  3485 ;;  divisor         2    0[BANK0 ] int 
  3486 ;;  dividend        2    2[BANK0 ] int 
  3487 ;; Auto vars:     Size  Location     Type
  3488 ;;  sign            1    6[BANK0 ] unsigned char 
  3489 ;;  counter         1    5[BANK0 ] unsigned char 
  3490 ;; Return value:  Size  Location     Type
  3491 ;;                  2    0[BANK0 ] int 
  3492 ;; Registers used:
  3493 ;;		wreg, status,2, status,0
  3494 ;; Tracked objects:
  3495 ;;		On entry : 0/0
  3496 ;;		On exit  : 0/0
  3497 ;;		Unchanged: 0/0
  3498 ;; Data sizes:     COMMON   BANK0   BANK1   BANK3   BANK2
  3499 ;;      Params:         0       4       0       0       0
  3500 ;;      Locals:         0       2       0       0       0
  3501 ;;      Temps:          0       1       0       0       0
  3502 ;;      Totals:         0       7       0       0       0
  3503 ;;Total ram usage:        7 bytes
  3504 ;; Hardware stack levels used:    1
  3505 ;; Hardware stack levels required when called:    2
  3506 ;; This function calls:
  3507 ;;		Nothing
  3508 ;; This function is called by:
  3509 ;;		_main
  3510 ;; This function uses a non-reentrant model
  3511 ;;
  3512                           
  3513                           
  3514                           ;psect for function ___awmod
  3515  0DA7                     ___awmod:
  3516  0DA7                     l1824:	
  3517                           ;incstack = 0
  3518                           ; Regs used in ___awmod: [wreg+status,2+status,0]
  3519                           
  3520  0DA7  1283               	bcf	3,5	;RP0=0, select bank0
  3521  0DA8  1303               	bcf	3,6	;RP1=0, select bank0
  3522  0DA9  01A6               	clrf	___awmod@sign
  3523  0DAA                     l1826:
  3524  0DAA  1FA3               	btfss	___awmod@dividend+1,7
  3525  0DAB  2DAD               	goto	u1401
  3526  0DAC  2DAE               	goto	u1400
  3527  0DAD                     u1401:
  3528  0DAD  2DB5               	goto	l1832
  3529  0DAE                     u1400:
  3530  0DAE                     l1828:
  3531  0DAE  09A2               	comf	___awmod@dividend,f
  3532  0DAF  09A3               	comf	___awmod@dividend+1,f
  3533  0DB0  0AA2               	incf	___awmod@dividend,f
  3534  0DB1  1903               	skipnz
  3535  0DB2  0AA3               	incf	___awmod@dividend+1,f
  3536  0DB3                     l1830:
  3537  0DB3  01A6               	clrf	___awmod@sign
  3538  0DB4  0AA6               	incf	___awmod@sign,f
  3539  0DB5                     l1832:
  3540  0DB5  1FA1               	btfss	___awmod@divisor+1,7
  3541  0DB6  2DB8               	goto	u1411
  3542  0DB7  2DB9               	goto	u1410
  3543  0DB8                     u1411:
  3544  0DB8  2DBE               	goto	l1836
  3545  0DB9                     u1410:
  3546  0DB9                     l1834:
  3547  0DB9  09A0               	comf	___awmod@divisor,f
  3548  0DBA  09A1               	comf	___awmod@divisor+1,f
  3549  0DBB  0AA0               	incf	___awmod@divisor,f
  3550  0DBC  1903               	skipnz
  3551  0DBD  0AA1               	incf	___awmod@divisor+1,f
  3552  0DBE                     l1836:
  3553  0DBE  0820               	movf	___awmod@divisor,w
  3554  0DBF  0421               	iorwf	___awmod@divisor+1,w
  3555  0DC0  1903               	btfsc	3,2
  3556  0DC1  2DC3               	goto	u1421
  3557  0DC2  2DC4               	goto	u1420
  3558  0DC3                     u1421:
  3559  0DC3  2DF3               	goto	l1854
  3560  0DC4                     u1420:
  3561  0DC4                     l1838:
  3562  0DC4  01A5               	clrf	___awmod@counter
  3563  0DC5  0AA5               	incf	___awmod@counter,f
  3564  0DC6  2DD2               	goto	l1844
  3565  0DC7                     l1840:
  3566  0DC7  3001               	movlw	1
  3567  0DC8                     u1435:
  3568  0DC8  1003               	clrc
  3569  0DC9  0DA0               	rlf	___awmod@divisor,f
  3570  0DCA  0DA1               	rlf	___awmod@divisor+1,f
  3571  0DCB  3EFF               	addlw	-1
  3572  0DCC  1D03               	skipz
  3573  0DCD  2DC8               	goto	u1435
  3574  0DCE                     l1842:
  3575  0DCE  3001               	movlw	1
  3576  0DCF  00A4               	movwf	??___awmod
  3577  0DD0  0824               	movf	??___awmod,w
  3578  0DD1  07A5               	addwf	___awmod@counter,f
  3579  0DD2                     l1844:
  3580  0DD2  1FA1               	btfss	___awmod@divisor+1,7
  3581  0DD3  2DD5               	goto	u1441
  3582  0DD4  2DD6               	goto	u1440
  3583  0DD5                     u1441:
  3584  0DD5  2DC7               	goto	l1840
  3585  0DD6                     u1440:
  3586  0DD6                     l1846:
  3587  0DD6  0821               	movf	___awmod@divisor+1,w
  3588  0DD7  0223               	subwf	___awmod@dividend+1,w
  3589  0DD8  1D03               	skipz
  3590  0DD9  2DDC               	goto	u1455
  3591  0DDA  0820               	movf	___awmod@divisor,w
  3592  0DDB  0222               	subwf	___awmod@dividend,w
  3593  0DDC                     u1455:
  3594  0DDC  1C03               	skipc
  3595  0DDD  2DDF               	goto	u1451
  3596  0DDE  2DE0               	goto	u1450
  3597  0DDF                     u1451:
  3598  0DDF  2DE6               	goto	l1850
  3599  0DE0                     u1450:
  3600  0DE0                     l1848:
  3601  0DE0  0820               	movf	___awmod@divisor,w
  3602  0DE1  02A2               	subwf	___awmod@dividend,f
  3603  0DE2  0821               	movf	___awmod@divisor+1,w
  3604  0DE3  1C03               	skipc
  3605  0DE4  03A3               	decf	___awmod@dividend+1,f
  3606  0DE5  02A3               	subwf	___awmod@dividend+1,f
  3607  0DE6                     l1850:
  3608  0DE6  3001               	movlw	1
  3609  0DE7                     u1465:
  3610  0DE7  1003               	clrc
  3611  0DE8  0CA1               	rrf	___awmod@divisor+1,f
  3612  0DE9  0CA0               	rrf	___awmod@divisor,f
  3613  0DEA  3EFF               	addlw	-1
  3614  0DEB  1D03               	skipz
  3615  0DEC  2DE7               	goto	u1465
  3616  0DED                     l1852:
  3617  0DED  3001               	movlw	1
  3618  0DEE  02A5               	subwf	___awmod@counter,f
  3619  0DEF  1D03               	btfss	3,2
  3620  0DF0  2DF2               	goto	u1471
  3621  0DF1  2DF3               	goto	u1470
  3622  0DF2                     u1471:
  3623  0DF2  2DD6               	goto	l1846
  3624  0DF3                     u1470:
  3625  0DF3                     l1854:
  3626  0DF3  0826               	movf	___awmod@sign,w
  3627  0DF4  1903               	btfsc	3,2
  3628  0DF5  2DF7               	goto	u1481
  3629  0DF6  2DF8               	goto	u1480
  3630  0DF7                     u1481:
  3631  0DF7  2DFD               	goto	l1858
  3632  0DF8                     u1480:
  3633  0DF8                     l1856:
  3634  0DF8  09A2               	comf	___awmod@dividend,f
  3635  0DF9  09A3               	comf	___awmod@dividend+1,f
  3636  0DFA  0AA2               	incf	___awmod@dividend,f
  3637  0DFB  1903               	skipnz
  3638  0DFC  0AA3               	incf	___awmod@dividend+1,f
  3639  0DFD                     l1858:
  3640  0DFD  0823               	movf	___awmod@dividend+1,w
  3641  0DFE  00A1               	movwf	?___awmod+1
  3642  0DFF  0822               	movf	___awmod@dividend,w
  3643  0E00  00A0               	movwf	?___awmod
  3644  0E01                     l506:
  3645  0E01  0008               	return
  3646  0E02                     __end_of___awmod:
  3647                           
  3648                           	psect	text5
  3649  0E02                     __ptext5:	
  3650 ;; *************** function ___awdiv *****************
  3651 ;; Defined at:
  3652 ;;		line 5 in file "C:\Program Files\Microchip\xc8\v2.31\pic\sources\c90\common\awdiv.c"
  3653 ;; Parameters:    Size  Location     Type
  3654 ;;  divisor         2    0[BANK0 ] int 
  3655 ;;  dividend        2    2[BANK0 ] int 
  3656 ;; Auto vars:     Size  Location     Type
  3657 ;;  quotient        2    7[BANK0 ] int 
  3658 ;;  sign            1    6[BANK0 ] unsigned char 
  3659 ;;  counter         1    5[BANK0 ] unsigned char 
  3660 ;; Return value:  Size  Location     Type
  3661 ;;                  2    0[BANK0 ] int 
  3662 ;; Registers used:
  3663 ;;		wreg, status,2, status,0
  3664 ;; Tracked objects:
  3665 ;;		On entry : 0/0
  3666 ;;		On exit  : 0/0
  3667 ;;		Unchanged: 0/0
  3668 ;; Data sizes:     COMMON   BANK0   BANK1   BANK3   BANK2
  3669 ;;      Params:         0       4       0       0       0
  3670 ;;      Locals:         0       4       0       0       0
  3671 ;;      Temps:          0       1       0       0       0
  3672 ;;      Totals:         0       9       0       0       0
  3673 ;;Total ram usage:        9 bytes
  3674 ;; Hardware stack levels used:    1
  3675 ;; Hardware stack levels required when called:    2
  3676 ;; This function calls:
  3677 ;;		Nothing
  3678 ;; This function is called by:
  3679 ;;		_main
  3680 ;; This function uses a non-reentrant model
  3681 ;;
  3682                           
  3683                           
  3684                           ;psect for function ___awdiv
  3685  0E02                     ___awdiv:
  3686  0E02                     l1780:	
  3687                           ;incstack = 0
  3688                           ; Regs used in ___awdiv: [wreg+status,2+status,0]
  3689                           
  3690  0E02  1283               	bcf	3,5	;RP0=0, select bank0
  3691  0E03  1303               	bcf	3,6	;RP1=0, select bank0
  3692  0E04  01A6               	clrf	___awdiv@sign
  3693  0E05                     l1782:
  3694  0E05  1FA1               	btfss	___awdiv@divisor+1,7
  3695  0E06  2E08               	goto	u1301
  3696  0E07  2E09               	goto	u1300
  3697  0E08                     u1301:
  3698  0E08  2E10               	goto	l1788
  3699  0E09                     u1300:
  3700  0E09                     l1784:
  3701  0E09  09A0               	comf	___awdiv@divisor,f
  3702  0E0A  09A1               	comf	___awdiv@divisor+1,f
  3703  0E0B  0AA0               	incf	___awdiv@divisor,f
  3704  0E0C  1903               	skipnz
  3705  0E0D  0AA1               	incf	___awdiv@divisor+1,f
  3706  0E0E                     l1786:
  3707  0E0E  01A6               	clrf	___awdiv@sign
  3708  0E0F  0AA6               	incf	___awdiv@sign,f
  3709  0E10                     l1788:
  3710  0E10  1FA3               	btfss	___awdiv@dividend+1,7
  3711  0E11  2E13               	goto	u1311
  3712  0E12  2E14               	goto	u1310
  3713  0E13                     u1311:
  3714  0E13  2E1D               	goto	l1794
  3715  0E14                     u1310:
  3716  0E14                     l1790:
  3717  0E14  09A2               	comf	___awdiv@dividend,f
  3718  0E15  09A3               	comf	___awdiv@dividend+1,f
  3719  0E16  0AA2               	incf	___awdiv@dividend,f
  3720  0E17  1903               	skipnz
  3721  0E18  0AA3               	incf	___awdiv@dividend+1,f
  3722  0E19                     l1792:
  3723  0E19  3001               	movlw	1
  3724  0E1A  00A4               	movwf	??___awdiv
  3725  0E1B  0824               	movf	??___awdiv,w
  3726  0E1C  06A6               	xorwf	___awdiv@sign,f
  3727  0E1D                     l1794:
  3728  0E1D  01A7               	clrf	___awdiv@quotient
  3729  0E1E  01A8               	clrf	___awdiv@quotient+1
  3730  0E1F                     l1796:
  3731  0E1F  0820               	movf	___awdiv@divisor,w
  3732  0E20  0421               	iorwf	___awdiv@divisor+1,w
  3733  0E21  1903               	btfsc	3,2
  3734  0E22  2E24               	goto	u1321
  3735  0E23  2E25               	goto	u1320
  3736  0E24                     u1321:
  3737  0E24  2E5C               	goto	l1816
  3738  0E25                     u1320:
  3739  0E25                     l1798:
  3740  0E25  01A5               	clrf	___awdiv@counter
  3741  0E26  0AA5               	incf	___awdiv@counter,f
  3742  0E27  2E33               	goto	l1804
  3743  0E28                     l1800:
  3744  0E28  3001               	movlw	1
  3745  0E29                     u1335:
  3746  0E29  1003               	clrc
  3747  0E2A  0DA0               	rlf	___awdiv@divisor,f
  3748  0E2B  0DA1               	rlf	___awdiv@divisor+1,f
  3749  0E2C  3EFF               	addlw	-1
  3750  0E2D  1D03               	skipz
  3751  0E2E  2E29               	goto	u1335
  3752  0E2F                     l1802:
  3753  0E2F  3001               	movlw	1
  3754  0E30  00A4               	movwf	??___awdiv
  3755  0E31  0824               	movf	??___awdiv,w
  3756  0E32  07A5               	addwf	___awdiv@counter,f
  3757  0E33                     l1804:
  3758  0E33  1FA1               	btfss	___awdiv@divisor+1,7
  3759  0E34  2E36               	goto	u1341
  3760  0E35  2E37               	goto	u1340
  3761  0E36                     u1341:
  3762  0E36  2E28               	goto	l1800
  3763  0E37                     u1340:
  3764  0E37                     l1806:
  3765  0E37  3001               	movlw	1
  3766  0E38                     u1355:
  3767  0E38  1003               	clrc
  3768  0E39  0DA7               	rlf	___awdiv@quotient,f
  3769  0E3A  0DA8               	rlf	___awdiv@quotient+1,f
  3770  0E3B  3EFF               	addlw	-1
  3771  0E3C  1D03               	skipz
  3772  0E3D  2E38               	goto	u1355
  3773  0E3E  0821               	movf	___awdiv@divisor+1,w
  3774  0E3F  0223               	subwf	___awdiv@dividend+1,w
  3775  0E40  1D03               	skipz
  3776  0E41  2E44               	goto	u1365
  3777  0E42  0820               	movf	___awdiv@divisor,w
  3778  0E43  0222               	subwf	___awdiv@dividend,w
  3779  0E44                     u1365:
  3780  0E44  1C03               	skipc
  3781  0E45  2E47               	goto	u1361
  3782  0E46  2E48               	goto	u1360
  3783  0E47                     u1361:
  3784  0E47  2E4F               	goto	l1812
  3785  0E48                     u1360:
  3786  0E48                     l1808:
  3787  0E48  0820               	movf	___awdiv@divisor,w
  3788  0E49  02A2               	subwf	___awdiv@dividend,f
  3789  0E4A  0821               	movf	___awdiv@divisor+1,w
  3790  0E4B  1C03               	skipc
  3791  0E4C  03A3               	decf	___awdiv@dividend+1,f
  3792  0E4D  02A3               	subwf	___awdiv@dividend+1,f
  3793  0E4E                     l1810:
  3794  0E4E  1427               	bsf	___awdiv@quotient,0
  3795  0E4F                     l1812:
  3796  0E4F  3001               	movlw	1
  3797  0E50                     u1375:
  3798  0E50  1003               	clrc
  3799  0E51  0CA1               	rrf	___awdiv@divisor+1,f
  3800  0E52  0CA0               	rrf	___awdiv@divisor,f
  3801  0E53  3EFF               	addlw	-1
  3802  0E54  1D03               	skipz
  3803  0E55  2E50               	goto	u1375
  3804  0E56                     l1814:
  3805  0E56  3001               	movlw	1
  3806  0E57  02A5               	subwf	___awdiv@counter,f
  3807  0E58  1D03               	btfss	3,2
  3808  0E59  2E5B               	goto	u1381
  3809  0E5A  2E5C               	goto	u1380
  3810  0E5B                     u1381:
  3811  0E5B  2E37               	goto	l1806
  3812  0E5C                     u1380:
  3813  0E5C                     l1816:
  3814  0E5C  0826               	movf	___awdiv@sign,w
  3815  0E5D  1903               	btfsc	3,2
  3816  0E5E  2E60               	goto	u1391
  3817  0E5F  2E61               	goto	u1390
  3818  0E60                     u1391:
  3819  0E60  2E66               	goto	l1820
  3820  0E61                     u1390:
  3821  0E61                     l1818:
  3822  0E61  09A7               	comf	___awdiv@quotient,f
  3823  0E62  09A8               	comf	___awdiv@quotient+1,f
  3824  0E63  0AA7               	incf	___awdiv@quotient,f
  3825  0E64  1903               	skipnz
  3826  0E65  0AA8               	incf	___awdiv@quotient+1,f
  3827  0E66                     l1820:
  3828  0E66  0828               	movf	___awdiv@quotient+1,w
  3829  0E67  00A1               	movwf	?___awdiv+1
  3830  0E68  0827               	movf	___awdiv@quotient,w
  3831  0E69  00A0               	movwf	?___awdiv
  3832  0E6A                     l493:
  3833  0E6A  0008               	return
  3834  0E6B                     __end_of___awdiv:
  3835                           
  3836                           	psect	text6
  3837  0D50                     __ptext6:	
  3838 ;; *************** function _String_Completo *****************
  3839 ;; Defined at:
  3840 ;;		line 459 in file "Proyecto2.c"
  3841 ;; Parameters:    Size  Location     Type
  3842 ;;  var             2    4[BANK0 ] PTR unsigned char 
  3843 ;;		 -> STR_26(50), STR_25(25), STR_24(13), STR_23(28), 
  3844 ;;		 -> STR_22(30), STR_21(38), STR_20(25), STR_19(23), 
  3845 ;;		 -> STR_18(15), STR_17(12), STR_16(38), STR_15(17), 
  3846 ;;		 -> STR_14(16), STR_13(15), STR_12(37), STR_11(17), 
  3847 ;;		 -> STR_10(16), STR_9(15), STR_8(36), STR_7(30), 
  3848 ;;		 -> STR_6(35), STR_5(19), STR_4(19), STR_3(18), 
  3849 ;;		 -> STR_2(27), STR_1(50), 
  3850 ;; Auto vars:     Size  Location     Type
  3851 ;;  i               2    9[BANK0 ] int 
  3852 ;; Return value:  Size  Location     Type
  3853 ;;                  1    wreg      void 
  3854 ;; Registers used:
  3855 ;;		wreg, fsr0l, fsr0h, status,2, status,0, btemp+1, pclath, cstack
  3856 ;; Tracked objects:
  3857 ;;		On entry : 0/0
  3858 ;;		On exit  : 0/0
  3859 ;;		Unchanged: 0/0
  3860 ;; Data sizes:     COMMON   BANK0   BANK1   BANK3   BANK2
  3861 ;;      Params:         0       2       0       0       0
  3862 ;;      Locals:         0       2       0       0       0
  3863 ;;      Temps:          0       3       0       0       0
  3864 ;;      Totals:         0       7       0       0       0
  3865 ;;Total ram usage:        7 bytes
  3866 ;; Hardware stack levels used:    1
  3867 ;; Hardware stack levels required when called:    3
  3868 ;; This function calls:
  3869 ;;		_strlen
  3870 ;; This function is called by:
  3871 ;;		_main
  3872 ;; This function uses a non-reentrant model
  3873 ;;
  3874                           
  3875                           
  3876                           ;psect for function _String_Completo
  3877  0D50                     _String_Completo:
  3878  0D50                     l1666:	
  3879                           ;incstack = 0
  3880                           ; Regs used in _String_Completo: [wreg-fsr0h+status,2+status,0+btemp+1+pclath+cstack]
  3881                           
  3882                           
  3883                           ;Proyecto2.c: 460:     TRISE = 0x07;;Proyecto2.c: 461: 
  3884  0D50  1283               	bcf	3,5	;RP0=0, select bank0
  3885  0D51  1303               	bcf	3,6	;RP1=0, select bank0
  3886  0D52  01A9               	clrf	String_Completo@i
  3887  0D53  01AA               	clrf	String_Completo@i+1
  3888  0D54  2D80               	goto	l1674
  3889  0D55                     l1668:
  3890                           
  3891                           ;Proyecto2.c: 462:     OPTION_REGbits.nRBPU = 0 ;
  3892  0D55  301A               	movlw	26
  3893  0D56  1283               	bcf	3,5	;RP0=0, select bank0
  3894  0D57  1303               	bcf	3,6	;RP1=0, select bank0
  3895  0D58  00A7               	movwf	??_String_Completo+1
  3896  0D59  30F7               	movlw	247
  3897  0D5A  00A6               	movwf	??_String_Completo
  3898  0D5B                     u2547:
  3899  0D5B  0BA6               	decfsz	??_String_Completo,f
  3900  0D5C  2D5B               	goto	u2547
  3901  0D5D  0BA7               	decfsz	??_String_Completo+1,f
  3902  0D5E  2D5B               	goto	u2547
  3903  0D5F  2D60               	nop2
  3904  0D60                     l1670:
  3905                           
  3906                           ;Proyecto2.c: 463:     WPUB = 0xFF;
  3907  0D60  1283               	bcf	3,5	;RP0=0, select bank0
  3908  0D61  1303               	bcf	3,6	;RP1=0, select bank0
  3909  0D62  0829               	movf	String_Completo@i,w
  3910  0D63  0724               	addwf	String_Completo@var,w
  3911  0D64  00A7               	movwf	??_String_Completo+1
  3912  0D65  0825               	movf	String_Completo@var+1,w
  3913  0D66  00A6               	movwf	??_String_Completo
  3914  0D67  1803               	skipnc
  3915  0D68  0AA6               	incf	??_String_Completo,f
  3916  0D69  1FA9               	btfss	String_Completo@i,7
  3917  0D6A  2D6C               	goto	u1180
  3918  0D6B  03A6               	decf	??_String_Completo,f
  3919  0D6C                     u1180:
  3920  0D6C  1283               	bcf	3,5	;RP0=0, select bank0
  3921  0D6D  1303               	bcf	3,6	;RP1=0, select bank0
  3922  0D6E  0826               	movf	??_String_Completo,w
  3923  0D6F  00A8               	movwf	??_String_Completo+2
  3924  0D70  0828               	movf	??_String_Completo+2,w
  3925  0D71  00FF               	movwf	btemp+1
  3926  0D72  0827               	movf	??_String_Completo+1,w
  3927  0D73  0084               	movwf	4
  3928  0D74  120A  118A  25EA  120A  158A  	fcall	stringtab
  3929  0D79  0099               	movwf	25	;volatile
  3930  0D7A                     l1672:
  3931                           
  3932                           ;Proyecto2.c: 464: 
  3933  0D7A  3001               	movlw	1
  3934  0D7B  07A9               	addwf	String_Completo@i,f
  3935  0D7C  1803               	skipnc
  3936  0D7D  0AAA               	incf	String_Completo@i+1,f
  3937  0D7E  3000               	movlw	0
  3938  0D7F  07AA               	addwf	String_Completo@i+1,f
  3939  0D80                     l1674:
  3940  0D80  0824               	movf	String_Completo@var,w
  3941  0D81  00A0               	movwf	strlen@s
  3942  0D82  0825               	movf	String_Completo@var+1,w
  3943  0D83  00A1               	movwf	strlen@s+1
  3944  0D84  120A  158A  24DA  120A  158A  	fcall	_strlen
  3945  0D89  1283               	bcf	3,5	;RP0=0, select bank0
  3946  0D8A  1303               	bcf	3,6	;RP1=0, select bank0
  3947  0D8B  0821               	movf	?_strlen+1,w
  3948  0D8C  022A               	subwf	String_Completo@i+1,w
  3949  0D8D  1D03               	skipz
  3950  0D8E  2D91               	goto	u1195
  3951  0D8F  0820               	movf	?_strlen,w
  3952  0D90  0229               	subwf	String_Completo@i,w
  3953  0D91                     u1195:
  3954  0D91  1C03               	skipc
  3955  0D92  2D94               	goto	u1191
  3956  0D93  2D95               	goto	u1190
  3957  0D94                     u1191:
  3958  0D94  2D55               	goto	l1668
  3959  0D95                     u1190:
  3960  0D95                     l1676:
  3961                           
  3962                           ;Proyecto2.c: 465:     PORTA = 0x00;
  3963  0D95  300D               	movlw	13
  3964  0D96  0099               	movwf	25	;volatile
  3965                           
  3966                           ;Proyecto2.c: 466:     PORTB = 0xFF;
  3967  0D97  301A               	movlw	26
  3968  0D98  1283               	bcf	3,5	;RP0=0, select bank0
  3969  0D99  1303               	bcf	3,6	;RP1=0, select bank0
  3970  0D9A  00A7               	movwf	??_String_Completo+1
  3971  0D9B  30F7               	movlw	247
  3972  0D9C  00A6               	movwf	??_String_Completo
  3973  0D9D                     u2557:
  3974  0D9D  0BA6               	decfsz	??_String_Completo,f
  3975  0D9E  2D9D               	goto	u2557
  3976  0D9F  0BA7               	decfsz	??_String_Completo+1,f
  3977  0DA0  2D9D               	goto	u2557
  3978  0DA1  2DA2               	nop2
  3979                           
  3980                           ;Proyecto2.c: 467:     PORTC = 0x00;
  3981  0DA2  300B               	movlw	11
  3982  0DA3  1283               	bcf	3,5	;RP0=0, select bank0
  3983  0DA4  1303               	bcf	3,6	;RP1=0, select bank0
  3984  0DA5  0099               	movwf	25	;volatile
  3985  0DA6                     l242:
  3986  0DA6  0008               	return
  3987  0DA7                     __end_of_String_Completo:
  3988                           
  3989                           	psect	text7
  3990  0CDA                     __ptext7:	
  3991 ;; *************** function _strlen *****************
  3992 ;; Defined at:
  3993 ;;		line 4 in file "C:\Program Files\Microchip\xc8\v2.31\pic\sources\c90\common\strlen.c"
  3994 ;; Parameters:    Size  Location     Type
  3995 ;;  s               2    0[BANK0 ] PTR const unsigned char 
  3996 ;;		 -> STR_26(50), STR_25(25), STR_24(13), STR_23(28), 
  3997 ;;		 -> STR_22(30), STR_21(38), STR_20(25), STR_19(23), 
  3998 ;;		 -> STR_18(15), STR_17(12), STR_16(38), STR_15(17), 
  3999 ;;		 -> STR_14(16), STR_13(15), STR_12(37), STR_11(17), 
  4000 ;;		 -> STR_10(16), STR_9(15), STR_8(36), STR_7(30), 
  4001 ;;		 -> STR_6(35), STR_5(19), STR_4(19), STR_3(18), 
  4002 ;;		 -> STR_2(27), STR_1(50), 
  4003 ;; Auto vars:     Size  Location     Type
  4004 ;;  cp              2    2[BANK0 ] PTR const unsigned char 
  4005 ;;		 -> STR_26(50), STR_25(25), STR_24(13), STR_23(28), 
  4006 ;;		 -> STR_22(30), STR_21(38), STR_20(25), STR_19(23), 
  4007 ;;		 -> STR_18(15), STR_17(12), STR_16(38), STR_15(17), 
  4008 ;;		 -> STR_14(16), STR_13(15), STR_12(37), STR_11(17), 
  4009 ;;		 -> STR_10(16), STR_9(15), STR_8(36), STR_7(30), 
  4010 ;;		 -> STR_6(35), STR_5(19), STR_4(19), STR_3(18), 
  4011 ;;		 -> STR_2(27), STR_1(50), 
  4012 ;; Return value:  Size  Location     Type
  4013 ;;                  2    0[BANK0 ] unsigned int 
  4014 ;; Registers used:
  4015 ;;		wreg, fsr0l, fsr0h, status,2, status,0, btemp+1, pclath
  4016 ;; Tracked objects:
  4017 ;;		On entry : 0/0
  4018 ;;		On exit  : 0/0
  4019 ;;		Unchanged: 0/0
  4020 ;; Data sizes:     COMMON   BANK0   BANK1   BANK3   BANK2
  4021 ;;      Params:         0       2       0       0       0
  4022 ;;      Locals:         0       2       0       0       0
  4023 ;;      Temps:          0       0       0       0       0
  4024 ;;      Totals:         0       4       0       0       0
  4025 ;;Total ram usage:        4 bytes
  4026 ;; Hardware stack levels used:    1
  4027 ;; Hardware stack levels required when called:    2
  4028 ;; This function calls:
  4029 ;;		Nothing
  4030 ;; This function is called by:
  4031 ;;		_String_Completo
  4032 ;; This function uses a non-reentrant model
  4033 ;;
  4034                           
  4035                           
  4036                           ;psect for function _strlen
  4037  0CDA                     _strlen:
  4038  0CDA                     l1558:	
  4039                           ;incstack = 0
  4040                           ; Regs used in _strlen: [wreg-fsr0h+status,2+status,0+btemp+1+pclath]
  4041                           
  4042  0CDA  1283               	bcf	3,5	;RP0=0, select bank0
  4043  0CDB  1303               	bcf	3,6	;RP1=0, select bank0
  4044  0CDC  0820               	movf	strlen@s,w
  4045  0CDD  00A2               	movwf	strlen@cp
  4046  0CDE  0821               	movf	strlen@s+1,w
  4047  0CDF  00A3               	movwf	strlen@cp+1
  4048  0CE0  2CE7               	goto	l1562
  4049  0CE1                     l1560:
  4050  0CE1  3001               	movlw	1
  4051  0CE2  07A2               	addwf	strlen@cp,f
  4052  0CE3  1803               	skipnc
  4053  0CE4  0AA3               	incf	strlen@cp+1,f
  4054  0CE5  3000               	movlw	0
  4055  0CE6  07A3               	addwf	strlen@cp+1,f
  4056  0CE7                     l1562:
  4057  0CE7  0823               	movf	strlen@cp+1,w
  4058  0CE8  00FF               	movwf	btemp+1
  4059  0CE9  0822               	movf	strlen@cp,w
  4060  0CEA  0084               	movwf	4
  4061  0CEB  120A  118A  25EA  120A  158A  	fcall	stringtab
  4062  0CF0  3A00               	xorlw	0
  4063  0CF1  1D03               	skipz
  4064  0CF2  2CF4               	goto	u1161
  4065  0CF3  2CF5               	goto	u1160
  4066  0CF4                     u1161:
  4067  0CF4  2CE1               	goto	l1560
  4068  0CF5                     u1160:
  4069  0CF5                     l1564:
  4070  0CF5  0820               	movf	strlen@s,w
  4071  0CF6  0222               	subwf	strlen@cp,w
  4072  0CF7  00A0               	movwf	?_strlen
  4073  0CF8  0821               	movf	strlen@s+1,w
  4074  0CF9  1C03               	skipc
  4075  0CFA  0A21               	incf	strlen@s+1,w
  4076  0CFB  0223               	subwf	strlen@cp+1,w
  4077  0CFC  00A1               	movwf	?_strlen+1
  4078  0CFD                     l794:
  4079  0CFD  0008               	return
  4080  0CFE                     __end_of_strlen:
  4081                           
  4082                           	psect	text8
  4083  0E6B                     __ptext8:	
  4084 ;; *************** function _isr *****************
  4085 ;; Defined at:
  4086 ;;		line 332 in file "Proyecto2.c"
  4087 ;; Parameters:    Size  Location     Type
  4088 ;;		None
  4089 ;; Auto vars:     Size  Location     Type
  4090 ;;		None
  4091 ;; Return value:  Size  Location     Type
  4092 ;;                  1    wreg      void 
  4093 ;; Registers used:
  4094 ;;		wreg, status,2, status,0, pclath, cstack
  4095 ;; Tracked objects:
  4096 ;;		On entry : 0/0
  4097 ;;		On exit  : 0/0
  4098 ;;		Unchanged: 0/0
  4099 ;; Data sizes:     COMMON   BANK0   BANK1   BANK3   BANK2
  4100 ;;      Params:         0       0       0       0       0
  4101 ;;      Locals:         0       0       0       0       0
  4102 ;;      Temps:          5       0       0       0       0
  4103 ;;      Totals:         5       0       0       0       0
  4104 ;;Total ram usage:        5 bytes
  4105 ;; Hardware stack levels used:    1
  4106 ;; Hardware stack levels required when called:    1
  4107 ;; This function calls:
  4108 ;;		_readFromEEPROM
  4109 ;; This function is called by:
  4110 ;;		Interrupt level 1
  4111 ;; This function uses a non-reentrant model
  4112 ;;
  4113                           
  4114                           
  4115                           ;psect for function _isr
  4116  0E6B                     _isr:
  4117  0E6B                     i1l2166:
  4118                           
  4119                           ;Proyecto2.c: 334:         }
  4120  0E6B  1283               	bcf	3,5	;RP0=0, select bank0
  4121  0E6C  1303               	bcf	3,6	;RP1=0, select bank0
  4122  0E6D  1E8C               	btfss	12,5	;volatile
  4123  0E6E  2E70               	goto	u203_21
  4124  0E6F  2E71               	goto	u203_20
  4125  0E70                     u203_21:
  4126  0E70  2E75               	goto	i1l2170
  4127  0E71                     u203_20:
  4128  0E71                     i1l2168:
  4129                           
  4130                           ;Proyecto2.c: 335: 
  4131  0E71  081A               	movf	26,w	;volatile
  4132  0E72  00F3               	movwf	??_isr
  4133  0E73  0873               	movf	??_isr,w
  4134  0E74  00B9               	movwf	_opcion
  4135  0E75                     i1l2170:
  4136                           
  4137                           ;Proyecto2.c: 338:             flag2 = 0;
  4138  0E75  1F0C               	btfss	12,6	;volatile
  4139  0E76  2E78               	goto	u204_21
  4140  0E77  2E79               	goto	u204_20
  4141  0E78                     u204_21:
  4142  0E78  2EE1               	goto	i1l2194
  4143  0E79                     u204_20:
  4144  0E79                     i1l2172:
  4145                           
  4146                           ;Proyecto2.c: 340: 
  4147  0E79  0C1F               	rrf	31,w	;volatile
  4148  0E7A  00F3               	movwf	??_isr
  4149  0E7B  0C73               	rrf	??_isr,w
  4150  0E7C  390F               	andlw	15
  4151  0E7D  3A05               	xorlw	5
  4152  0E7E  1D03               	skipz
  4153  0E7F  2E81               	goto	u205_21
  4154  0E80  2E82               	goto	u205_20
  4155  0E81                     u205_21:
  4156  0E81  2EAD               	goto	i1l2182
  4157  0E82                     u205_20:
  4158  0E82                     i1l2174:
  4159                           
  4160                           ;Proyecto2.c: 341:         if(PORTBbits.RB5 == 0){
  4161  0E82  081E               	movf	30,w	;volatile
  4162  0E83  0088               	movwf	8	;volatile
  4163                           
  4164                           ;Proyecto2.c: 342: 
  4165  0E84  0808               	movf	8,w	;volatile
  4166  0E85  00F3               	movwf	??_isr
  4167  0E86  0873               	movf	??_isr,w
  4168  0E87  00B8               	movwf	_temp_posicion1
  4169  0E88                     i1l2176:
  4170                           
  4171                           ;Proyecto2.c: 343:             PORTD = readFromEEPROM(read_EEPROM);
  4172  0E88  0808               	movf	8,w	;volatile
  4173  0E89  00F3               	movwf	??_isr
  4174  0E8A  1003               	clrc
  4175  0E8B  0C73               	rrf	??_isr,w
  4176  0E8C  3E80               	addlw	128
  4177  0E8D  0095               	movwf	21	;volatile
  4178  0E8E                     i1l2178:
  4179                           
  4180                           ;Proyecto2.c: 344:             if(read_EEPROM == 0x17){
  4181  0E8E  1808               	btfsc	8,0	;volatile
  4182  0E8F  2E91               	goto	u206_21
  4183  0E90  2E95               	goto	u206_20
  4184  0E91                     u206_21:
  4185  0E91  1283               	bcf	3,5	;RP0=0, select bank0
  4186  0E92  1303               	bcf	3,6	;RP1=0, select bank0
  4187  0E93  1697               	bsf	23,5	;volatile
  4188  0E94  2E98               	goto	u207_24
  4189  0E95                     u206_20:
  4190  0E95  1283               	bcf	3,5	;RP0=0, select bank0
  4191  0E96  1303               	bcf	3,6	;RP1=0, select bank0
  4192  0E97  1297               	bcf	23,5	;volatile
  4193  0E98                     u207_24:
  4194  0E98                     i1l2180:
  4195                           
  4196                           ;Proyecto2.c: 345:                     read_EEPROM = 0x10;
  4197  0E98  1683               	bsf	3,5	;RP0=1, select bank1
  4198  0E99  1303               	bcf	3,6	;RP1=0, select bank1
  4199  0E9A  081E               	movf	30,w	;volatile
  4200  0E9B  00F3               	movwf	??_isr
  4201  0E9C  3007               	movlw	7
  4202  0E9D                     u208_25:
  4203  0E9D  1003               	clrc
  4204  0E9E  0CF3               	rrf	??_isr,f
  4205  0E9F  3EFF               	addlw	-1
  4206  0EA0  1D03               	skipz
  4207  0EA1  2E9D               	goto	u208_25
  4208  0EA2  0873               	movf	??_isr,w
  4209  0EA3  00F4               	movwf	??_isr+1
  4210  0EA4  0EF4               	swapf	??_isr+1,f
  4211  0EA5  1283               	bcf	3,5	;RP0=0, select bank0
  4212  0EA6  1303               	bcf	3,6	;RP1=0, select bank0
  4213  0EA7  0817               	movf	23,w	;volatile
  4214  0EA8  0674               	xorwf	??_isr+1,w
  4215  0EA9  39EF               	andlw	-17
  4216  0EAA  0674               	xorwf	??_isr+1,w
  4217  0EAB  0097               	movwf	23	;volatile
  4218  0EAC  2EE0               	goto	i1l2192
  4219  0EAD                     i1l2182:
  4220  0EAD  0C1F               	rrf	31,w	;volatile
  4221  0EAE  00F3               	movwf	??_isr
  4222  0EAF  0C73               	rrf	??_isr,w
  4223  0EB0  390F               	andlw	15
  4224  0EB1  3A06               	xorlw	6
  4225  0EB2  1D03               	skipz
  4226  0EB3  2EB5               	goto	u209_21
  4227  0EB4  2EB6               	goto	u209_20
  4228  0EB5                     u209_21:
  4229  0EB5  2EE0               	goto	i1l2192
  4230  0EB6                     u209_20:
  4231  0EB6                     i1l2184:
  4232                           
  4233                           ;Proyecto2.c: 348:             }
  4234  0EB6  081E               	movf	30,w	;volatile
  4235  0EB7  0088               	movwf	8	;volatile
  4236                           
  4237                           ;Proyecto2.c: 349: 
  4238  0EB8  0808               	movf	8,w	;volatile
  4239  0EB9  00F3               	movwf	??_isr
  4240  0EBA  0873               	movf	??_isr,w
  4241  0EBB  00B7               	movwf	_temp_posicion2
  4242  0EBC                     i1l2186:
  4243                           
  4244                           ;Proyecto2.c: 350:             CCPR1L = (PORTD>>1) + 120;
  4245  0EBC  0808               	movf	8,w	;volatile
  4246  0EBD  00F3               	movwf	??_isr
  4247  0EBE  1003               	clrc
  4248  0EBF  0C73               	rrf	??_isr,w
  4249  0EC0  3E80               	addlw	128
  4250  0EC1  009B               	movwf	27	;volatile
  4251  0EC2                     i1l2188:
  4252                           
  4253                           ;Proyecto2.c: 351:             CCP1CONbits.DC1B1 = PORTDbits.RD0;
  4254  0EC2  1808               	btfsc	8,0	;volatile
  4255  0EC3  2EC5               	goto	u210_21
  4256  0EC4  2EC9               	goto	u210_20
  4257  0EC5                     u210_21:
  4258  0EC5  1283               	bcf	3,5	;RP0=0, select bank0
  4259  0EC6  1303               	bcf	3,6	;RP1=0, select bank0
  4260  0EC7  169D               	bsf	29,5	;volatile
  4261  0EC8  2ECC               	goto	u211_24
  4262  0EC9                     u210_20:
  4263  0EC9  1283               	bcf	3,5	;RP0=0, select bank0
  4264  0ECA  1303               	bcf	3,6	;RP1=0, select bank0
  4265  0ECB  129D               	bcf	29,5	;volatile
  4266  0ECC                     u211_24:
  4267  0ECC                     i1l2190:
  4268                           
  4269                           ;Proyecto2.c: 352:             CCP1CONbits.DC1B0 = ADRESL>>7;
  4270  0ECC  1683               	bsf	3,5	;RP0=1, select bank1
  4271  0ECD  1303               	bcf	3,6	;RP1=0, select bank1
  4272  0ECE  081E               	movf	30,w	;volatile
  4273  0ECF  00F3               	movwf	??_isr
  4274  0ED0  3007               	movlw	7
  4275  0ED1                     u212_25:
  4276  0ED1  1003               	clrc
  4277  0ED2  0CF3               	rrf	??_isr,f
  4278  0ED3  3EFF               	addlw	-1
  4279  0ED4  1D03               	skipz
  4280  0ED5  2ED1               	goto	u212_25
  4281  0ED6  0873               	movf	??_isr,w
  4282  0ED7  00F4               	movwf	??_isr+1
  4283  0ED8  0EF4               	swapf	??_isr+1,f
  4284  0ED9  1283               	bcf	3,5	;RP0=0, select bank0
  4285  0EDA  1303               	bcf	3,6	;RP1=0, select bank0
  4286  0EDB  081D               	movf	29,w	;volatile
  4287  0EDC  0674               	xorwf	??_isr+1,w
  4288  0EDD  39EF               	andlw	-17
  4289  0EDE  0674               	xorwf	??_isr+1,w
  4290  0EDF  009D               	movwf	29	;volatile
  4291  0EE0                     i1l2192:
  4292                           
  4293                           ;Proyecto2.c: 353: 
  4294  0EE0  130C               	bcf	12,6	;volatile
  4295  0EE1                     i1l2194:
  4296                           
  4297                           ;Proyecto2.c: 356: 
  4298  0EE1  1C0B               	btfss	11,0	;volatile
  4299  0EE2  2EE4               	goto	u213_21
  4300  0EE3  2EE5               	goto	u213_20
  4301  0EE4                     u213_21:
  4302  0EE4  2FF9               	goto	i1l214
  4303  0EE5                     u213_20:
  4304  0EE5                     i1l2196:
  4305                           
  4306                           ;Proyecto2.c: 357:             PORTD = readFromEEPROM(read_EEPROM);
  4307  0EE5  1806               	btfsc	6,0	;volatile
  4308  0EE6  2EE8               	goto	u214_21
  4309  0EE7  2EE9               	goto	u214_20
  4310  0EE8                     u214_21:
  4311  0EE8  2F15               	goto	i1l2206
  4312  0EE9                     u214_20:
  4313  0EE9                     i1l2198:
  4314                           
  4315                           ;Proyecto2.c: 358:             if(read_EEPROM == 0x17){
  4316  0EE9  0878               	movf	_flag2,w
  4317  0EEA  0479               	iorwf	_flag2+1,w
  4318  0EEB  1903               	btfsc	3,2
  4319  0EEC  2EEE               	goto	u215_21
  4320  0EED  2EEF               	goto	u215_20
  4321  0EEE                     u215_21:
  4322  0EEE  2F03               	goto	i1l2202
  4323  0EEF                     u215_20:
  4324  0EEF                     i1l2200:
  4325                           
  4326                           ;Proyecto2.c: 359:                     read_EEPROM = 0x10;
  4327  0EEF  300A               	movlw	10
  4328  0EF0  0085               	movwf	5	;volatile
  4329                           
  4330                           ;Proyecto2.c: 360:             }else{
  4331  0EF1  3004               	movlw	4
  4332  0EF2  00F5               	movwf	??_isr+2
  4333  0EF3  308E               	movlw	142
  4334  0EF4  00F4               	movwf	??_isr+1
  4335  0EF5  3012               	movlw	18
  4336  0EF6  00F3               	movwf	??_isr
  4337  0EF7                     u256_27:
  4338  0EF7  0BF3               	decfsz	??_isr,f
  4339  0EF8  2EF7               	goto	u256_27
  4340  0EF9  0BF4               	decfsz	??_isr+1,f
  4341  0EFA  2EF7               	goto	u256_27
  4342  0EFB  0BF5               	decfsz	??_isr+2,f
  4343  0EFC  2EF7               	goto	u256_27
  4344  0EFD  0000               	nop
  4345                           
  4346                           ;Proyecto2.c: 361:                 read_EEPROM++;
  4347  0EFE  3008               	movlw	8
  4348  0EFF  1283               	bcf	3,5	;RP0=0, select bank0
  4349  0F00  1303               	bcf	3,6	;RP1=0, select bank0
  4350  0F01  0085               	movwf	5	;volatile
  4351                           
  4352                           ;Proyecto2.c: 362:             }
  4353  0F02  2F15               	goto	i1l2206
  4354  0F03                     i1l2202:
  4355                           
  4356                           ;Proyecto2.c: 364:             CCPR2L = (PORTD>>1) + 128;
  4357  0F03  3002               	movlw	2
  4358  0F04  0085               	movwf	5	;volatile
  4359                           
  4360                           ;Proyecto2.c: 365:             CCP2CONbits.DC2B1 = PORTDbits.RD0;
  4361  0F05  3004               	movlw	4
  4362  0F06  00F5               	movwf	??_isr+2
  4363  0F07  308E               	movlw	142
  4364  0F08  00F4               	movwf	??_isr+1
  4365  0F09  3012               	movlw	18
  4366  0F0A  00F3               	movwf	??_isr
  4367  0F0B                     u257_27:
  4368  0F0B  0BF3               	decfsz	??_isr,f
  4369  0F0C  2F0B               	goto	u257_27
  4370  0F0D  0BF4               	decfsz	??_isr+1,f
  4371  0F0E  2F0B               	goto	u257_27
  4372  0F0F  0BF5               	decfsz	??_isr+2,f
  4373  0F10  2F0B               	goto	u257_27
  4374  0F11  0000               	nop
  4375  0F12                     i1l2204:
  4376                           
  4377                           ;Proyecto2.c: 366:             CCP2CONbits.DC2B0 = ADRESL>>7;
  4378  0F12  1283               	bcf	3,5	;RP0=0, select bank0
  4379  0F13  1303               	bcf	3,6	;RP1=0, select bank0
  4380  0F14  0185               	clrf	5	;volatile
  4381  0F15                     i1l2206:
  4382                           
  4383                           ;Proyecto2.c: 370:     INTCONbits.RBIF = 0;
  4384  0F15  1886               	btfsc	6,1	;volatile
  4385  0F16  2F18               	goto	u216_21
  4386  0F17  2F19               	goto	u216_20
  4387  0F18                     u216_21:
  4388  0F18  2F45               	goto	i1l2216
  4389  0F19                     u216_20:
  4390  0F19                     i1l2208:
  4391                           
  4392                           ;Proyecto2.c: 371: }
  4393  0F19  0878               	movf	_flag2,w
  4394  0F1A  0479               	iorwf	_flag2+1,w
  4395  0F1B  1903               	btfsc	3,2
  4396  0F1C  2F1E               	goto	u217_21
  4397  0F1D  2F1F               	goto	u217_20
  4398  0F1E                     u217_21:
  4399  0F1E  2F33               	goto	i1l2212
  4400  0F1F                     u217_20:
  4401  0F1F                     i1l2210:
  4402                           
  4403                           ;Proyecto2.c: 372:  return;
  4404  0F1F  3009               	movlw	9
  4405  0F20  0085               	movwf	5	;volatile
  4406                           
  4407                           ;Proyecto2.c: 373: }
  4408  0F21  3004               	movlw	4
  4409  0F22  00F5               	movwf	??_isr+2
  4410  0F23  308E               	movlw	142
  4411  0F24  00F4               	movwf	??_isr+1
  4412  0F25  3012               	movlw	18
  4413  0F26  00F3               	movwf	??_isr
  4414  0F27                     u258_27:
  4415  0F27  0BF3               	decfsz	??_isr,f
  4416  0F28  2F27               	goto	u258_27
  4417  0F29  0BF4               	decfsz	??_isr+1,f
  4418  0F2A  2F27               	goto	u258_27
  4419  0F2B  0BF5               	decfsz	??_isr+2,f
  4420  0F2C  2F27               	goto	u258_27
  4421  0F2D  0000               	nop
  4422                           
  4423                           ;Proyecto2.c: 374: 
  4424  0F2E  3008               	movlw	8
  4425  0F2F  1283               	bcf	3,5	;RP0=0, select bank0
  4426  0F30  1303               	bcf	3,6	;RP1=0, select bank0
  4427  0F31  0085               	movwf	5	;volatile
  4428                           
  4429                           ;Proyecto2.c: 375: 
  4430  0F32  2F45               	goto	i1l2216
  4431  0F33                     i1l2212:
  4432                           
  4433                           ;Proyecto2.c: 377: 
  4434  0F33  3001               	movlw	1
  4435  0F34  0085               	movwf	5	;volatile
  4436                           
  4437                           ;Proyecto2.c: 378: uint8_t decimal(uint8_t val){
  4438  0F35  3004               	movlw	4
  4439  0F36  00F5               	movwf	??_isr+2
  4440  0F37  308E               	movlw	142
  4441  0F38  00F4               	movwf	??_isr+1
  4442  0F39  3012               	movlw	18
  4443  0F3A  00F3               	movwf	??_isr
  4444  0F3B                     u259_27:
  4445  0F3B  0BF3               	decfsz	??_isr,f
  4446  0F3C  2F3B               	goto	u259_27
  4447  0F3D  0BF4               	decfsz	??_isr+1,f
  4448  0F3E  2F3B               	goto	u259_27
  4449  0F3F  0BF5               	decfsz	??_isr+2,f
  4450  0F40  2F3B               	goto	u259_27
  4451  0F41  0000               	nop
  4452  0F42                     i1l2214:
  4453                           
  4454                           ;Proyecto2.c: 379:     if(val==0){
  4455  0F42  1283               	bcf	3,5	;RP0=0, select bank0
  4456  0F43  1303               	bcf	3,6	;RP1=0, select bank0
  4457  0F44  0185               	clrf	5	;volatile
  4458  0F45                     i1l2216:
  4459                           
  4460                           ;Proyecto2.c: 382:         return 49;
  4461  0F45  1906               	btfsc	6,2	;volatile
  4462  0F46  2F48               	goto	u218_21
  4463  0F47  2F49               	goto	u218_20
  4464  0F48                     u218_21:
  4465  0F48  2F50               	goto	i1l2222
  4466  0F49                     u218_20:
  4467  0F49                     i1l2218:
  4468                           
  4469                           ;Proyecto2.c: 383:     }else if(val==2){
  4470  0F49  3008               	movlw	8
  4471  0F4A  0085               	movwf	5	;volatile
  4472                           
  4473                           ;Proyecto2.c: 384:         return 50;
  4474  0F4B  3001               	movlw	1
  4475  0F4C  00F8               	movwf	_flag2
  4476  0F4D  3000               	movlw	0
  4477  0F4E  00F9               	movwf	_flag2+1
  4478  0F4F                     i1l2220:
  4479                           
  4480                           ;Proyecto2.c: 385:     }else if(val==3){
  4481  0F4F  1705               	bsf	5,6	;volatile
  4482  0F50                     i1l2222:
  4483                           
  4484                           ;Proyecto2.c: 387:     }else if(val==4){
  4485  0F50  1986               	btfsc	6,3	;volatile
  4486  0F51  2F53               	goto	u219_21
  4487  0F52  2F54               	goto	u219_20
  4488  0F53                     u219_21:
  4489  0F53  2F5B               	goto	i1l2228
  4490  0F54                     u219_20:
  4491  0F54                     i1l2224:
  4492                           
  4493                           ;Proyecto2.c: 388:         return 52;
  4494  0F54  3004               	movlw	4
  4495  0F55  0085               	movwf	5	;volatile
  4496                           
  4497                           ;Proyecto2.c: 389:     }else if(val==5){
  4498  0F56  3001               	movlw	1
  4499  0F57  00F8               	movwf	_flag2
  4500  0F58  3000               	movlw	0
  4501  0F59  00F9               	movwf	_flag2+1
  4502  0F5A                     i1l2226:
  4503                           
  4504                           ;Proyecto2.c: 390:         return 53;
  4505  0F5A  1785               	bsf	5,7	;volatile
  4506  0F5B                     i1l2228:
  4507                           
  4508                           ;Proyecto2.c: 393:     }else if(val==7){
  4509  0F5B  1D86               	btfss	6,3	;volatile
  4510  0F5C  2F5E               	goto	u220_21
  4511  0F5D  2F5F               	goto	u220_20
  4512  0F5E                     u220_21:
  4513  0F5E  2F66               	goto	i1l2234
  4514  0F5F                     u220_20:
  4515  0F5F                     i1l2230:
  4516  0F5F  1D06               	btfss	6,2	;volatile
  4517  0F60  2F62               	goto	u221_21
  4518  0F61  2F63               	goto	u221_20
  4519  0F62                     u221_21:
  4520  0F62  2F66               	goto	i1l2234
  4521  0F63                     u221_20:
  4522  0F63                     i1l2232:
  4523                           
  4524                           ;Proyecto2.c: 394:         return 55;
  4525  0F63  0185               	clrf	5	;volatile
  4526                           
  4527                           ;Proyecto2.c: 395:     }else if(val==8){
  4528  0F64  01F8               	clrf	_flag2
  4529  0F65  01F9               	clrf	_flag2+1
  4530  0F66                     i1l2234:
  4531                           
  4532                           ;Proyecto2.c: 398:         return 57;
  4533  0F66  1A86               	btfsc	6,5	;volatile
  4534  0F67  2F69               	goto	u222_21
  4535  0F68  2F6A               	goto	u222_20
  4536  0F69                     u222_21:
  4537  0F69  2FF8               	goto	i1l2260
  4538  0F6A                     u222_20:
  4539  0F6A                     i1l2236:
  4540                           
  4541                           ;Proyecto2.c: 400: }
  4542  0F6A  087A               	movf	_read_EEPROM,w
  4543  0F6B  120A  158A  24AF  120A  158A  	fcall	_readFromEEPROM
  4544  0F70  1283               	bcf	3,5	;RP0=0, select bank0
  4545  0F71  1303               	bcf	3,6	;RP1=0, select bank0
  4546  0F72  0088               	movwf	8	;volatile
  4547  0F73                     i1l2238:
  4548                           
  4549                           ;Proyecto2.c: 401: 
  4550  0F73  3017               	movlw	23
  4551  0F74  067A               	xorwf	_read_EEPROM,w
  4552  0F75  1D03               	btfss	3,2
  4553  0F76  2F78               	goto	u223_21
  4554  0F77  2F79               	goto	u223_20
  4555  0F78                     u223_21:
  4556  0F78  2F7E               	goto	i1l2242
  4557  0F79                     u223_20:
  4558  0F79                     i1l2240:
  4559                           
  4560                           ;Proyecto2.c: 402: void String_Completo(char *var){
  4561  0F79  3010               	movlw	16
  4562  0F7A  00F3               	movwf	??_isr
  4563  0F7B  0873               	movf	??_isr,w
  4564  0F7C  00FA               	movwf	_read_EEPROM
  4565                           
  4566                           ;Proyecto2.c: 403:     int i;
  4567  0F7D  2F82               	goto	i1l211
  4568  0F7E                     i1l2242:
  4569                           
  4570                           ;Proyecto2.c: 404:     for (i = 0; i < strlen(var); i++) {
  4571  0F7E  3001               	movlw	1
  4572  0F7F  00F3               	movwf	??_isr
  4573  0F80  0873               	movf	??_isr,w
  4574  0F81  07FA               	addwf	_read_EEPROM,f
  4575  0F82                     i1l211:	
  4576                           ;Proyecto2.c: 405:          _delay((unsigned long)((10)*(8000000/4000.0)));
  4577                           
  4578                           
  4579                           ;Proyecto2.c: 407:     }
  4580  0F82  0808               	movf	8,w	;volatile
  4581  0F83  00F3               	movwf	??_isr
  4582  0F84  1003               	clrc
  4583  0F85  0C73               	rrf	??_isr,w
  4584  0F86  3E78               	addlw	120
  4585  0F87  0095               	movwf	21	;volatile
  4586  0F88                     i1l2244:
  4587                           
  4588                           ;Proyecto2.c: 408:     TXREG = 13;
  4589  0F88  1808               	btfsc	8,0	;volatile
  4590  0F89  2F8B               	goto	u224_21
  4591  0F8A  2F8F               	goto	u224_20
  4592  0F8B                     u224_21:
  4593  0F8B  1283               	bcf	3,5	;RP0=0, select bank0
  4594  0F8C  1303               	bcf	3,6	;RP1=0, select bank0
  4595  0F8D  1697               	bsf	23,5	;volatile
  4596  0F8E  2F92               	goto	u225_24
  4597  0F8F                     u224_20:
  4598  0F8F  1283               	bcf	3,5	;RP0=0, select bank0
  4599  0F90  1303               	bcf	3,6	;RP1=0, select bank0
  4600  0F91  1297               	bcf	23,5	;volatile
  4601  0F92                     u225_24:
  4602                           
  4603                           ;Proyecto2.c: 409:     _delay((unsigned long)((10)*(8000000/4000.0)));
  4604  0F92  1683               	bsf	3,5	;RP0=1, select bank1
  4605  0F93  1303               	bcf	3,6	;RP1=0, select bank1
  4606  0F94  081E               	movf	30,w	;volatile
  4607  0F95  00F3               	movwf	??_isr
  4608  0F96  3007               	movlw	7
  4609  0F97                     u226_25:
  4610  0F97  1003               	clrc
  4611  0F98  0CF3               	rrf	??_isr,f
  4612  0F99  3EFF               	addlw	-1
  4613  0F9A  1D03               	skipz
  4614  0F9B  2F97               	goto	u226_25
  4615  0F9C  0873               	movf	??_isr,w
  4616  0F9D  00F4               	movwf	??_isr+1
  4617  0F9E  0EF4               	swapf	??_isr+1,f
  4618  0F9F  1283               	bcf	3,5	;RP0=0, select bank0
  4619  0FA0  1303               	bcf	3,6	;RP1=0, select bank0
  4620  0FA1  0817               	movf	23,w	;volatile
  4621  0FA2  0674               	xorwf	??_isr+1,w
  4622  0FA3  39EF               	andlw	-17
  4623  0FA4  0674               	xorwf	??_isr+1,w
  4624  0FA5  0097               	movwf	23	;volatile
  4625  0FA6                     i1l2246:
  4626                           
  4627                           ;Proyecto2.c: 411: }
  4628  0FA6  301A               	movlw	26
  4629  0FA7  00F4               	movwf	??_isr+1
  4630  0FA8  30F8               	movlw	248
  4631  0FA9  00F3               	movwf	??_isr
  4632  0FAA                     u260_27:
  4633  0FAA  0BF3               	decfsz	??_isr,f
  4634  0FAB  2FAA               	goto	u260_27
  4635  0FAC  0BF4               	decfsz	??_isr+1,f
  4636  0FAD  2FAA               	goto	u260_27
  4637  0FAE  0000               	nop
  4638  0FAF                     i1l2248:
  4639                           
  4640                           ;Proyecto2.c: 414:     EEADR = address;
  4641  0FAF  087A               	movf	_read_EEPROM,w
  4642  0FB0  120A  158A  24AF  120A  158A  	fcall	_readFromEEPROM
  4643  0FB5  1283               	bcf	3,5	;RP0=0, select bank0
  4644  0FB6  1303               	bcf	3,6	;RP1=0, select bank0
  4645  0FB7  0088               	movwf	8	;volatile
  4646  0FB8                     i1l2250:
  4647                           
  4648                           ;Proyecto2.c: 415:     EEDAT = data;
  4649  0FB8  3017               	movlw	23
  4650  0FB9  067A               	xorwf	_read_EEPROM,w
  4651  0FBA  1D03               	btfss	3,2
  4652  0FBB  2FBD               	goto	u227_21
  4653  0FBC  2FBE               	goto	u227_20
  4654  0FBD                     u227_21:
  4655  0FBD  2FC3               	goto	i1l2254
  4656  0FBE                     u227_20:
  4657  0FBE                     i1l2252:
  4658                           
  4659                           ;Proyecto2.c: 416:     EECON1bits.EEPGD = 0;
  4660  0FBE  3010               	movlw	16
  4661  0FBF  00F3               	movwf	??_isr
  4662  0FC0  0873               	movf	??_isr,w
  4663  0FC1  00FA               	movwf	_read_EEPROM
  4664                           
  4665                           ;Proyecto2.c: 417:     EECON1bits.WREN = 1;
  4666  0FC2  2FC7               	goto	i1l213
  4667  0FC3                     i1l2254:
  4668                           
  4669                           ;Proyecto2.c: 418: 
  4670  0FC3  3001               	movlw	1
  4671  0FC4  00F3               	movwf	??_isr
  4672  0FC5  0873               	movf	??_isr,w
  4673  0FC6  07FA               	addwf	_read_EEPROM,f
  4674  0FC7                     i1l213:	
  4675                           ;Proyecto2.c: 419: 
  4676                           
  4677                           
  4678                           ;Proyecto2.c: 421:     EECON2 = 0x55;
  4679  0FC7  0808               	movf	8,w	;volatile
  4680  0FC8  00F3               	movwf	??_isr
  4681  0FC9  1003               	clrc
  4682  0FCA  0C73               	rrf	??_isr,w
  4683  0FCB  3E80               	addlw	128
  4684  0FCC  009B               	movwf	27	;volatile
  4685  0FCD                     i1l2256:
  4686                           
  4687                           ;Proyecto2.c: 422:     EECON2 = 0xAA;
  4688  0FCD  1808               	btfsc	8,0	;volatile
  4689  0FCE  2FD0               	goto	u228_21
  4690  0FCF  2FD4               	goto	u228_20
  4691  0FD0                     u228_21:
  4692  0FD0  1283               	bcf	3,5	;RP0=0, select bank0
  4693  0FD1  1303               	bcf	3,6	;RP1=0, select bank0
  4694  0FD2  169D               	bsf	29,5	;volatile
  4695  0FD3  2FD7               	goto	u229_24
  4696  0FD4                     u228_20:
  4697  0FD4  1283               	bcf	3,5	;RP0=0, select bank0
  4698  0FD5  1303               	bcf	3,6	;RP1=0, select bank0
  4699  0FD6  129D               	bcf	29,5	;volatile
  4700  0FD7                     u229_24:
  4701                           
  4702                           ;Proyecto2.c: 423: 
  4703  0FD7  1683               	bsf	3,5	;RP0=1, select bank1
  4704  0FD8  1303               	bcf	3,6	;RP1=0, select bank1
  4705  0FD9  081E               	movf	30,w	;volatile
  4706  0FDA  00F3               	movwf	??_isr
  4707  0FDB  3007               	movlw	7
  4708  0FDC                     u230_25:
  4709  0FDC  1003               	clrc
  4710  0FDD  0CF3               	rrf	??_isr,f
  4711  0FDE  3EFF               	addlw	-1
  4712  0FDF  1D03               	skipz
  4713  0FE0  2FDC               	goto	u230_25
  4714  0FE1  0873               	movf	??_isr,w
  4715  0FE2  00F4               	movwf	??_isr+1
  4716  0FE3  0EF4               	swapf	??_isr+1,f
  4717  0FE4  1283               	bcf	3,5	;RP0=0, select bank0
  4718  0FE5  1303               	bcf	3,6	;RP1=0, select bank0
  4719  0FE6  081D               	movf	29,w	;volatile
  4720  0FE7  0674               	xorwf	??_isr+1,w
  4721  0FE8  39EF               	andlw	-17
  4722  0FE9  0674               	xorwf	??_isr+1,w
  4723  0FEA  009D               	movwf	29	;volatile
  4724  0FEB                     i1l2258:
  4725                           
  4726                           ;Proyecto2.c: 424:     EECON1bits.WR = 1;
  4727  0FEB  3033               	movlw	51
  4728  0FEC  00F5               	movwf	??_isr+2
  4729  0FED  30BB               	movlw	187
  4730  0FEE  00F4               	movwf	??_isr+1
  4731  0FEF  30DF               	movlw	223
  4732  0FF0  00F3               	movwf	??_isr
  4733  0FF1                     u261_27:
  4734  0FF1  0BF3               	decfsz	??_isr,f
  4735  0FF2  2FF1               	goto	u261_27
  4736  0FF3  0BF4               	decfsz	??_isr+1,f
  4737  0FF4  2FF1               	goto	u261_27
  4738  0FF5  0BF5               	decfsz	??_isr+2,f
  4739  0FF6  2FF1               	goto	u261_27
  4740  0FF7  2FF8               	nop2
  4741  0FF8                     i1l2260:
  4742                           
  4743                           ;Proyecto2.c: 427:     EECON1bits.WREN = 0;
  4744  0FF8  100B               	bcf	11,0	;volatile
  4745  0FF9                     i1l214:
  4746  0FF9  0877               	movf	??_isr+4,w
  4747  0FFA  008A               	movwf	10
  4748  0FFB  0E76               	swapf	??_isr+3,w
  4749  0FFC  0083               	movwf	3
  4750  0FFD  0EFE               	swapf	btemp,f
  4751  0FFE  0E7E               	swapf	btemp,w
  4752  0FFF  0009               	retfie
  4753  1000                     __end_of_isr:
  4754                           
  4755                           	psect	intentry
  4756  0004                     __pintentry:	
  4757                           ;incstack = 0
  4758                           ; Regs used in _isr: [wreg+status,2+status,0+pclath+cstack]
  4759                           
  4760  0004                     interrupt_function:
  4761  007E                     saved_w	set	btemp
  4762  0004  00FE               	movwf	btemp
  4763  0005  0E03               	swapf	3,w
  4764  0006  00F6               	movwf	??_isr+3
  4765  0007  080A               	movf	10,w
  4766  0008  00F7               	movwf	??_isr+4
  4767  0009  120A  158A  2E6B   	ljmp	_isr
  4768                           
  4769                           	psect	text9
  4770  0CAF                     __ptext9:	
  4771 ;; *************** function _readFromEEPROM *****************
  4772 ;; Defined at:
  4773 ;;		line 490 in file "Proyecto2.c"
  4774 ;; Parameters:    Size  Location     Type
  4775 ;;  address         1    wreg     unsigned char 
  4776 ;; Auto vars:     Size  Location     Type
  4777 ;;  address         1    1[COMMON] unsigned char 
  4778 ;;  data            1    2[COMMON] unsigned char 
  4779 ;; Return value:  Size  Location     Type
  4780 ;;                  1    wreg      unsigned char 
  4781 ;; Registers used:
  4782 ;;		wreg
  4783 ;; Tracked objects:
  4784 ;;		On entry : 0/0
  4785 ;;		On exit  : 0/0
  4786 ;;		Unchanged: 0/0
  4787 ;; Data sizes:     COMMON   BANK0   BANK1   BANK3   BANK2
  4788 ;;      Params:         0       0       0       0       0
  4789 ;;      Locals:         2       0       0       0       0
  4790 ;;      Temps:          1       0       0       0       0
  4791 ;;      Totals:         3       0       0       0       0
  4792 ;;Total ram usage:        3 bytes
  4793 ;; Hardware stack levels used:    1
  4794 ;; This function calls:
  4795 ;;		Nothing
  4796 ;; This function is called by:
  4797 ;;		_isr
  4798 ;; This function uses a non-reentrant model
  4799 ;;
  4800                           
  4801                           
  4802                           ;psect for function _readFromEEPROM
  4803  0CAF                     _readFromEEPROM:
  4804                           
  4805                           ;incstack = 0
  4806                           ; Regs used in _readFromEEPROM: [wreg]
  4807                           ;readFromEEPROM@address stored from wreg
  4808  0CAF  00F1               	movwf	readFromEEPROM@address
  4809  0CB0                     i1l1772:
  4810                           
  4811                           ;Proyecto2.c: 491:     CCP2CONbits.DC2B0 = 0;
  4812  0CB0  0871               	movf	readFromEEPROM@address,w
  4813  0CB1  1283               	bcf	3,5	;RP0=0, select bank2
  4814  0CB2  1703               	bsf	3,6	;RP1=1, select bank2
  4815  0CB3  008D               	movwf	13	;volatile
  4816  0CB4                     i1l1774:
  4817                           
  4818                           ;Proyecto2.c: 492: 
  4819  0CB4  1683               	bsf	3,5	;RP0=1, select bank3
  4820  0CB5  1703               	bsf	3,6	;RP1=1, select bank3
  4821  0CB6  138C               	bcf	12,7	;volsfr
  4822  0CB7                     i1l1776:
  4823                           
  4824                           ;Proyecto2.c: 493:     PIR1bits.TMR2IF = 0;
  4825  0CB7  140C               	bsf	12,0	;volsfr
  4826                           
  4827                           ;Proyecto2.c: 494:     T2CONbits.T2CKPS1 = 1;
  4828  0CB8  1283               	bcf	3,5	;RP0=0, select bank2
  4829  0CB9  1703               	bsf	3,6	;RP1=1, select bank2
  4830  0CBA  080C               	movf	12,w	;volatile
  4831  0CBB  00F0               	movwf	??_readFromEEPROM
  4832  0CBC  0870               	movf	??_readFromEEPROM,w
  4833  0CBD  00F2               	movwf	readFromEEPROM@data
  4834                           
  4835                           ;Proyecto2.c: 495:     T2CONbits.T2CKPS0 = 1;
  4836  0CBE  0872               	movf	readFromEEPROM@data,w
  4837  0CBF                     i1l248:
  4838  0CBF  0008               	return
  4839  0CC0                     __end_of_readFromEEPROM:
  4840  007E                     btemp	set	126	;btemp
  4841  007E                     wtemp0	set	126
  4842                           
  4843                           	psect	config
  4844                           
  4845                           ;Config register CONFIG1 @ 0x2007
  4846                           ;	Oscillator Selection bits
  4847                           ;	FOSC = INTRC_NOCLKOUT, INTOSCIO oscillator: I/O function on RA6/OSC2/CLKOUT pin, I/O f
      +                          unction on RA7/OSC1/CLKIN
  4848                           ;	Watchdog Timer Enable bit
  4849                           ;	WDTE = OFF, WDT disabled and can be enabled by SWDTEN bit of the WDTCON register
  4850                           ;	Power-up Timer Enable bit
  4851                           ;	PWRTE = ON, PWRT enabled
  4852                           ;	RE3/MCLR pin function select bit
  4853                           ;	MCLRE = OFF, RE3/MCLR pin function is digital input, MCLR internally tied to VDD
  4854                           ;	Code Protection bit
  4855                           ;	CP = OFF, Program memory code protection is disabled
  4856                           ;	Data Code Protection bit
  4857                           ;	CPD = OFF, Data memory code protection is disabled
  4858                           ;	Brown Out Reset Selection bits
  4859                           ;	BOREN = OFF, BOR disabled
  4860                           ;	Internal External Switchover bit
  4861                           ;	IESO = OFF, Internal/External Switchover mode is disabled
  4862                           ;	Fail-Safe Clock Monitor Enabled bit
  4863                           ;	FCMEN = OFF, Fail-Safe Clock Monitor is disabled
  4864                           ;	Low Voltage Programming Enable bit
  4865                           ;	LVP = OFF, RB3 pin has digital I/O, HV on MCLR must be used for programming
  4866                           ;	In-Circuit Debugger Mode bit
  4867                           ;	DEBUG = 0x1, unprogrammed default
  4868  2007                     	org	8199
  4869  2007  20C4               	dw	8388
  4870                           
  4871                           ;Config register CONFIG2 @ 0x2008
  4872                           ;	Brown-out Reset Selection bit
  4873                           ;	BOR4V = BOR40V, Brown-out Reset set to 4.0V
  4874                           ;	Flash Program Memory Self Write Enable bits
  4875                           ;	WRT = OFF, Write protection off
  4876  2008                     	org	8200
  4877  2008  3FFF               	dw	16383

Data Sizes:
    Strings     528
    Constant    0
    Data        4
    BSS         14
    Persistent  0
    Stack       0

Auto Spaces:
    Space          Size  Autos    Used
    COMMON           14      8      11
    BANK0            80     14      29
    BANK1            80      0       0
    BANK3            96      0       0
    BANK2            96      0       0

Pointer List with Targets:

    strlen@s	PTR const unsigned char  size(2) Largest target is 50
		 -> STR_26(CODE[50]), STR_25(CODE[25]), STR_24(CODE[13]), STR_23(CODE[28]), 
		 -> STR_22(CODE[30]), STR_21(CODE[38]), STR_20(CODE[25]), STR_19(CODE[23]), 
		 -> STR_18(CODE[15]), STR_17(CODE[12]), STR_16(CODE[38]), STR_15(CODE[17]), 
		 -> STR_14(CODE[16]), STR_13(CODE[15]), STR_12(CODE[37]), STR_11(CODE[17]), 
		 -> STR_10(CODE[16]), STR_9(CODE[15]), STR_8(CODE[36]), STR_7(CODE[30]), 
		 -> STR_6(CODE[35]), STR_5(CODE[19]), STR_4(CODE[19]), STR_3(CODE[18]), 
		 -> STR_2(CODE[27]), STR_1(CODE[50]), 

    strlen@cp	PTR const unsigned char  size(2) Largest target is 50
		 -> STR_26(CODE[50]), STR_25(CODE[25]), STR_24(CODE[13]), STR_23(CODE[28]), 
		 -> STR_22(CODE[30]), STR_21(CODE[38]), STR_20(CODE[25]), STR_19(CODE[23]), 
		 -> STR_18(CODE[15]), STR_17(CODE[12]), STR_16(CODE[38]), STR_15(CODE[17]), 
		 -> STR_14(CODE[16]), STR_13(CODE[15]), STR_12(CODE[37]), STR_11(CODE[17]), 
		 -> STR_10(CODE[16]), STR_9(CODE[15]), STR_8(CODE[36]), STR_7(CODE[30]), 
		 -> STR_6(CODE[35]), STR_5(CODE[19]), STR_4(CODE[19]), STR_3(CODE[18]), 
		 -> STR_2(CODE[27]), STR_1(CODE[50]), 

    String_Completo@var	PTR unsigned char  size(2) Largest target is 50
		 -> STR_26(CODE[50]), STR_25(CODE[25]), STR_24(CODE[13]), STR_23(CODE[28]), 
		 -> STR_22(CODE[30]), STR_21(CODE[38]), STR_20(CODE[25]), STR_19(CODE[23]), 
		 -> STR_18(CODE[15]), STR_17(CODE[12]), STR_16(CODE[38]), STR_15(CODE[17]), 
		 -> STR_14(CODE[16]), STR_13(CODE[15]), STR_12(CODE[37]), STR_11(CODE[17]), 
		 -> STR_10(CODE[16]), STR_9(CODE[15]), STR_8(CODE[36]), STR_7(CODE[30]), 
		 -> STR_6(CODE[35]), STR_5(CODE[19]), STR_4(CODE[19]), STR_3(CODE[18]), 
		 -> STR_2(CODE[27]), STR_1(CODE[50]), 


Critical Paths under _main in COMMON

    None.

Critical Paths under _isr in COMMON

    _isr->_readFromEEPROM

Critical Paths under _main in BANK0

    _main->_String_Completo
    _String_Completo->_strlen

Critical Paths under _isr in BANK0

    None.

Critical Paths under _main in BANK1

    None.

Critical Paths under _isr in BANK1

    None.

Critical Paths under _main in BANK3

    None.

Critical Paths under _isr in BANK3

    None.

Critical Paths under _main in BANK2

    None.

Critical Paths under _isr in BANK2

    None.

Call Graph Tables:

 ---------------------------------------------------------------------------------
 (Depth) Function   	        Calls       Base Space   Used Autos Params    Refs
 ---------------------------------------------------------------------------------
 (0) _main                                                 3     3      0    3852
                                             11 BANK0      3     3      0
                    _String_Completo
                            ___awdiv
                            ___awmod
                            _decimal
                              _setup
                      _writeToEEPROM
 ---------------------------------------------------------------------------------
 (1) _writeToEEPROM                                        2     1      1     196
                                              0 BANK0      2     1      1
 ---------------------------------------------------------------------------------
 (1) _setup                                                1     1      0       0
                                              0 BANK0      1     1      0
 ---------------------------------------------------------------------------------
 (1) _decimal                                              1     1      0     220
                                              0 BANK0      1     1      0
 ---------------------------------------------------------------------------------
 (1) ___awmod                                              7     3      4     600
                                              0 BANK0      7     3      4
 ---------------------------------------------------------------------------------
 (1) ___awdiv                                              9     5      4     604
                                              0 BANK0      9     5      4
 ---------------------------------------------------------------------------------
 (1) _String_Completo                                      7     5      2    2232
                                              4 BANK0      7     5      2
                             _strlen
 ---------------------------------------------------------------------------------
 (2) _strlen                                               4     2      2     166
                                              0 BANK0      4     2      2
 ---------------------------------------------------------------------------------
 Estimated maximum stack depth 2
 ---------------------------------------------------------------------------------
 (Depth) Function   	        Calls       Base Space   Used Autos Params    Refs
 ---------------------------------------------------------------------------------
 (3) _isr                                                  5     5      0      45
                                              3 COMMON     5     5      0
                     _readFromEEPROM
 ---------------------------------------------------------------------------------
 (4) _readFromEEPROM                                       3     3      0      45
                                              0 COMMON     3     3      0
 ---------------------------------------------------------------------------------
 Estimated maximum stack depth 4
 ---------------------------------------------------------------------------------

 Call Graph Graphs:

 _main (ROOT)
   _String_Completo
     _strlen
   ___awdiv
   ___awmod
   _decimal
   _setup
   _writeToEEPROM

 _isr (ROOT)
   _readFromEEPROM

 Address spaces:
Name               Size   Autos  Total    Cost      Usage
BANK3               60      0       0       9        0.0%
BITBANK3            60      0       0       8        0.0%
SFR3                 0      0       0       4        0.0%
BITSFR3              0      0       0       4        0.0%
BANK2               60      0       0      11        0.0%
BITBANK2            60      0       0      10        0.0%
SFR2                 0      0       0       5        0.0%
BITSFR2              0      0       0       5        0.0%
BANK1               50      0       0       7        0.0%
BITBANK1            50      0       0       6        0.0%
SFR1                 0      0       0       2        0.0%
BITSFR1              0      0       0       2        0.0%
BANK0               50      E      1D       5       36.2%
BITBANK0            50      0       0       4        0.0%
SFR0                 0      0       0       1        0.0%
BITSFR0              0      0       0       1        0.0%
COMMON               E      8       B       1       78.6%
BITCOMMON            E      0       0       0        0.0%
CODE                 0      0       0       0        0.0%
DATA                 0      0      28      12        0.0%
ABS                  0      0      28       3        0.0%
NULL                 0      0       0       0        0.0%
STACK                0      0       0       2        0.0%
EEDATA             100      0       0       0        0.0%


Microchip Technology PIC Macro Assembler V2.31 build 20201012212115 
Symbol Table                                                                                   Fri Jun 04 15:37:53 2021

                       pc 0002              ___awdiv@sign 0026                        fsr 0004  
                     l231 0D4F                       l242 0DA6                       l218 0D4F  
                     l251 05BD                       l253 05C1                       l245 0CD9  
                     l254 05E9                       l506 0E01                       l493 0E6A  
                     l794 0CFD                       _PR2 0092                       _isr 0E6B  
                     fsr0 0004                       indf 0000              ___awmod@sign 0026  
__size_of_String_Completo 0057                      l2000 02AB                      l2010 02D9  
                    l2002 02BC                      l2100 045F                      l2020 030A  
                    l2012 02DF                      l2004 02BF                      l2110 04AA  
                    l2102 0475                      l2030 0344                      l2022 030D  
                    l2014 02F0                      l2006 02C5                      l2120 04DA  
                    l2112 04B5                      l2104 048B                      l2040 0352  
                    l2032 0345                      l2016 02F3                      l2008 02D6  
                    l2024 030E                      l2130 04F6                      l2122 04E5  
                    l2114 04C0                      l2106 0494                      l2050 036C  
                    l2042 0361                      l2034 034A                      l2026 0314  
                    l2018 02F9                      l2140 050F                      l2132 04FF  
                    l2116 04CB                      l2108 049F                      l2060 0397  
                    l2052 037B                      l2036 0350                      l2044 0364  
                    l2028 033E                      l2150 0530                      l2142 0515  
                    l2118 04D6                      l2070 03CC                      l2062 03A5  
                    l2046 036A                      l2054 037E                      l2038 0351  
                    l2126 04EA                      l2134 0503                      l1600 0593  
                    l2160 0558                      l2152 0535                      l2144 0519  
                    l2136 0507                      l2128 04F0                      l2080 0407  
                    l2072 03DA                      l2064 03A9                      l2056 0384  
                    l2048 036B                      l1610 05A9                      l1602 0597  
                    l2162 055D                      l2154 0540                      l2146 0523  
                    l2138 050B                      l2090 0420                      l2082 040B  
                    l2074 03FD                      l2066 03BA                      l2058 0394  
                    l1620 05B7                      l1612 05AD                      l1604 059E  
                    l2164 0562                      l2156 0546                      l2148 052B  
                    l2092 0426                      l2084 040F                      l2068 03C8  
                    l2076 0400                      l1710 0D1F                      l1702 0D17  
                    l1630 05BC                      l1622 05B8                      l1614 05B1  
                    l1606 05A1                      l2158 0550                      l2094 042D  
                    l2086 0416                      l2078 0401                      l1560 0CE1  
                    l1800 0E28                      l1720 0D2D                      l1712 0D25  
                    l1704 0D1D                      l1640 05D2                      l1632 05C9  
                    l1624 05B9                      l1616 05B3                      l1608 05A5  
                    l2096 0433                      l2088 0419                      l1562 0CE7  
                    l1810 0E4E                      l1802 0E2F                      l1650 05D9  
                    l1642 05D3                      l1634 05CD                      l1626 05BA  
                    l1618 05B5                      l1570 056E                      l2098 0449  
                    l1564 0CF5                      l1820 0E66                      l1812 0E4F  
                    l1804 0E33                      l1660 05E4                      l1652 05DA  
                    l1644 05D6                      l1636 05CE                      l1628 05BB  
                    l1580 057D                      l1572 0571                      l1900 00A1  
                    l1558 0CDA                      l1670 0D60                      l1814 0E56  
                    l1806 0E37                      l1830 0DB3                      l1750 0D47  
                    l1742 0D3F                      l1734 0D37                      l1726 0D2F  
                    l1718 0D27                      l1662 05E8                      l1654 05DB  
                    l1646 05D7                      l1638 05D1                      l1590 0587  
                    l1582 057E                      l1574 0573                      l1910 011B  
                    l1902 00E1                      l1672 0D7A                      l1808 0E48  
                    l1816 0E5C                      l1840 0DC7                      l1832 0DB5  
                    l1824 0DA7                      l1752 0D4D                      l1744 0D45  
                    l1736 0D3D                      l1728 0D35                      l1680 0D06  
                    l1656 05DE                      l1648 05D8                      l1592 0588  
                    l1584 0580                      l1576 057A                      l1568 0568  
                    l1760 0CD0                      l1920 012E                      l1912 011C  
                    l1904 00E5                      l1674 0D80                      l1666 0D50  
                    l1818 0E61                      l1850 0DE6                      l1842 0DCE  
                    l1834 0DB9                      l1826 0DAA                      l1658 05E1  
                    l1594 058B                      l1586 0585                      l1578 057B  
                    l1762 0CD1                      l1930 015A                      l1922 0138  
                    l1914 0121                      l1906 00EB                      l1676 0D95  
                    l1668 0D55                      l1780 0E02                      l1852 0DED  
                    l1844 0DD2                      l1836 0DBE                      l1828 0DAE  
                    l1596 058C                      l1588 0586                      l1764 0CD6  
                    l1756 0CC3                      l1940 0186                      l1932 0164  
                    l1916 0127                      l1924 014C                      l1908 0115  
                    l1790 0E14                      l1782 0E05                      l1846 0DD6  
                    l1838 0DC4                      l1854 0DF3                      l1694 0D0F  
                    l1686 0D08                      l1678 0D01                      l1598 058D  
                    l1766 0CD7                      l1758 0CCD                      l1950 01C3  
                    l1942 0190                      l1926 0152                      l1934 0178  
                    l1918 0128                      l1870 004E                      l1862 0039  
                    l1792 0E19                      l1784 0E09                      l1856 0DF8  
                    l1848 0DE0                      l1696 0D15                      l1688 0D0D  
                    l1768 0CD8                      l1960 01E1                      l1952 01D4  
                    l1936 017E                      l1944 01A4                      l1928 0154  
                    l1880 006E                      l1872 0053                      l1864 003E  
                    l1794 0E1D                      l1786 0E0E                      l1858 0DFD  
                    l1970 020D                      l1962 01E7                      l1954 01D5  
                    l1946 01AD                      l1938 0180                      l1890 008B  
                    l1882 0075                      l1874 005C                      l1866 0041  
                    l1796 0E1F                      l1788 0E10                      l1980 0239  
                    l1972 0213                      l1964 01F1                      l1956 01DA  
                    l1948 01B8                      l1892 008F                      l1876 0061  
                    l1868 0045                      l1884 0078                      l1798 0E25  
                    l1990 0264                      l1982 023F                      l1974 021D  
                    l1958 01E0                      l1966 0205                      l1894 0095  
                    l1886 007C                      l1878 006A                      l1992 0299  
                    l1984 0249                      l1968 020B                      l1976 0231  
                    l1896 0099                      l1888 0082                      l1994 029F  
                    l1978 0237                      l1986 025D                      l1898 009B  
                    l1996 02A0                      l1988 025E                      l1998 02A5  
                    ?_isr 0070                      STR_1 0600                      STR_2 071C  
                    STR_3 07A6                      STR_4 0780                      STR_5 0793  
                    STR_6 06A1                      STR_7 06C4                      STR_8 067D  
                    STR_9 07D9                      u1200 0D06                      u2000 0515  
                    u1201 0D05                      u2001 0514                      u1210 0D0D  
                    u2010 052B                      u1211 0D0C                      u2011 052A  
                    u1300 0E09                      u1220 0D15                      u2020 0558  
                    u1301 0E08                      u1221 0D14                      u2021 0557  
                    u1310 0E14                      u1230 0D1D                      u1311 0E13  
                    u1231 0D1C                      u1160 0CF5                      u1320 0E25  
                    u1400 0DAE                      u1240 0D25                      u1161 0CF4  
                    u1321 0E24                      u1401 0DAD                      u1241 0D24  
                    u1410 0DB9                      u1250 0D2D                      u1170 05C1  
                    u1411 0DB8                      u1251 0D2C                      u1171 05C0  
                    u1180 0D6C                      u1340 0E37                      u1420 0DC4  
                    u1260 0D35                      u1500 004E                      _IOCB 0096  
                    u1341 0E36                      u1421 0DC3                      u1261 0D34  
                    u1501 004D                      u1190 0D95                      u1270 0D3D  
                    u1510 005C                      u1191 0D94                      u1335 0E29  
                    u1271 0D3C                      u1511 005B                      u1360 0E48  
                    u1440 0DD6                      u1280 0D45                      u1600 0135  
                    u1520 006A                      u1361 0E47                      u1441 0DD5  
                    u1281 0D44                      u1601 0131                      u1521 0069  
                    u1450 0DE0                      u1290 0D4D                      u1530 007C  
                    u1195 0D91                      u1355 0E38                      u1451 0DDF  
                    u1435 0DC8                      u1291 0D4C                      u1531 007B  
                    u1380 0E5C                      u1540 0082                      u1381 0E5B  
                    u1365 0E44                      u1541 0081                      u2317 0072  
                    u1390 0E61                      u1470 0DF3                      u1710 01DA  
                    u1630 0152                      u1614 0138                      u1550 0095  
                    u1391 0E60                      u1375 0E50                      u1471 0DF2  
                    u1455 0DDC                      u2407 03B1                      u2327 02B5  
                    u1711 01D9                      u1631 0151                      u1551 0094  
                    u1480 0DF8                      u1800 0237                      u1720 01E0  
                    u1640 0161                      u1560 00A1                      u1481 0DF7  
                    u1465 0DE7                      u2417 03C2                      u2337 02CF  
                    u1801 0236                      u1721 01DF                      u1705 0197  
                    u1641 015D                      u1625 013F                      u1561 00A0  
                    u1810 0246                      u1730 01EE                      u1570 00EB  
                    u1490 0045                      u2507 04D1                      u2427 03D4  
                    u2347 02E9                      u1811 0242                      u1731 01EA  
                    u1571 00EA                      u1491 0044                      u1900 0314  
                    u1580 0121                      u2517 04E0                      u2437 03E5  
                    u1901 0313                      u2357 0303                      u1581 0120  
                    u1910 034A                      u1670 017E                      u1654 0164  
                    u1590 0127                      u2527 053B                      u2447 03F7  
                    u2367 035A                      u1911 0349                      u1671 017D  
                    u1591 0126                      u1920 0350                      u1840 0264  
                    u1824 0249                      u1760 020B                      u1744 01F1  
                    u1680 018D                      u2537 059B                      u2457 0413  
                    u2377 0374                      u1921 034F                      u1841 0263  
                    u1761 020A                      u1681 0189                      u1665 016B  
                    u1930 036A                      u1850 02A5                      u1770 021A  
                    u2547 0D5B                      u2467 041D                      u2387 038E  
                    u1931 0369                      u1851 02A4                      u1835 0250  
                    u1771 0216                      u1755 01F8                      u1940 0384  
                    u1860 02AB                      u2557 0D9D                      u2477 042A  
                    u2397 039F                      u1941 0383                      u1861 02AA  
                    u1950 0407                      u1870 02C5                      u1694 0190  
                    u2487 04A5                      u1951 0406                      u1871 02C4  
                    u1960 04F0                      u1880 02DF                      u1784 021D  
                    u1961 04EF                      u2497 04BB                      u1881 02DE  
                    u1970 04F6                      u1890 02F9                      u1971 04F5  
                    u1891 02F8                      u1795 0224                      u1980 0507  
                    u1981 0506                      u1990 050F                      u1991 050E  
                    _WPUB 0095                      _flag 003A                      _main 0039  
                    btemp 007E                      start 000C                     ??_isr 0073  
                   ?_main 0070           __end_of___awdiv 0E6B                     _EEADR 010D  
                   STR_10 07C9                     _EEDAT 010C                     STR_11 07B8  
                   STR_20 0750                     STR_12 0658                     STR_21 0632  
                   STR_13 07D9                     STR_14 07C9                     STR_22 06E2  
                   STR_15 07B8                     STR_23 0700                     STR_24 07F7  
                   STR_16 0632                     STR_17 0804                     STR_25 0737  
                   STR_26 0600                     STR_18 07E8                     STR_19 0769  
         __end_of___awmod 0E02                     _ANSEL 0188           ___awdiv@divisor 0020  
                   i1l211 0F82                     i1l213 0FC7                     i1l214 0FF9  
                   i1l248 0CBF           ___awdiv@counter 0025                     _RCREG 001A  
                   _SPBRG 0099                     _PORTA 0005                     _PORTB 0006  
                   _PORTC 0007                     _PORTD 0008                     _PORTE 0009  
                   _TRISA 0085                     _TRISB 0086                     _TRISC 0087  
                   _TRISD 0088                     _TRISE 0089           __end_of_decimal 0D50  
                   _TXREG 0019                     _flag2 0078                     _setup 0568  
                   pclath 000A                     status 0003                     wtemp0 007E  
         __initialization 000F              __end_of_main 0568        readFromEEPROM@data 0072  
   readFromEEPROM@address 0071                    ??_main 002B                    _ADRESH 001E  
                  _ADRESL 009E                    _EEDATA 010C                    _CCPR1L 0015  
                  _CCPR2L 001B                    _EECON2 018D          ___awdiv@dividend 0022  
                  ?_setup 0070                    _ANSELH 0189                    i1l2200 0EEF  
                  i1l2210 0F1F                    i1l2202 0F03                    i1l2220 0F4F  
                  i1l2212 0F33                    i1l2204 0F12                    i1l2230 0F5F  
                  i1l2222 0F50                    i1l2214 0F42                    i1l2206 0F15  
                  i1l2240 0F79                    i1l2232 0F63                    i1l2224 0F54  
                  i1l2208 0F19                    i1l2216 0F45                    i1l2250 0FB8  
                  i1l2242 0F7E                    i1l2234 0F66                    i1l2226 0F5A  
                  i1l2218 0F49                    i1l2170 0E75                    i1l2252 0FBE  
                  i1l2244 0F88                    i1l2236 0F6A                    i1l2260 0FF8  
                  i1l2228 0F5B                    i1l2180 0E98                    i1l2172 0E79  
                  i1l2254 0FC3                    i1l2246 0FA6                    i1l2238 0F73  
                  i1l2190 0ECC                    i1l2174 0E82                    i1l2182 0EAD  
                  i1l2166 0E6B                    i1l2256 0FCD                    i1l2248 0FAF  
                  i1l2184 0EB6                    i1l2192 0EE0                    i1l2176 0E88  
                  i1l2168 0E71                    i1l2258 0FEB                    i1l2186 0EBC  
                  i1l2178 0E8E                    i1l2194 0EE1                    i1l2196 0EE5  
                  i1l2188 0EC2                    i1l2198 0EE9                    u210_20 0EC9  
                  u210_21 0EC5                    i1l1772 0CB0                    i1l1774 0CB4  
                  i1l1776 0CB7                    u203_20 0E71                    u203_21 0E70  
                  u211_24 0ECC                    u220_20 0F5F                    u204_20 0E79  
                  u220_21 0F5E                    u204_21 0E78                    u212_25 0ED1  
                  u221_20 0F63                    u213_20 0EE5                    u205_20 0E82  
                  u221_21 0F62                    u213_21 0EE4                    u205_21 0E81  
                  u222_20 0F6A                    u214_20 0EE9                    u206_20 0E95  
                  u222_21 0F69                    u214_21 0EE8                    u206_21 0E91  
                  u230_25 0FDC                    u223_20 0F79                    u215_20 0EEF  
                  u223_21 0F78                    u215_21 0EEE                    u207_24 0E98  
                  u224_20 0F8F                    u216_20 0F19                    u224_21 0F8B  
                  u216_21 0F18                    u208_25 0E9D                    u217_20 0F1F  
                  u209_20 0EB6                    u217_21 0F1E                    u209_21 0EB5  
                  u225_24 0F92                    u218_20 0F49                    u218_21 0F48  
                  u226_25 0F97                    u227_20 0FBE                    u219_20 0F54  
                  u227_21 0FBD                    u219_21 0F53                    u228_20 0FD4  
                  u228_21 0FD0                    u260_27 0FAA                    u229_24 0FD7  
                  u261_27 0FF1                    u256_27 0EF7                    u257_27 0F0B  
                  u258_27 0F27                    u259_27 0F3B                    _SPBRGH 009A  
       ??_String_Completo 0026         writeToEEPROM@data 0021                 ??___awdiv 0024  
               ??___awmod 0024                 ??_decimal 0020          ___awdiv@quotient 0027  
         ___awmod@divisor 0020                    _opcion 0039           ___awmod@counter 0025  
                  _strlen 0CDA              __pdataCOMMON 007A                    saved_w 007E  
  __size_of_writeToEEPROM 001A              _decenas_temp 0032   __end_of__initialization 0035  
          __pcstackCOMMON 0070              __pidataBANK0 05FC             __end_of_setup 05EA  
 __size_of_readFromEEPROM 0011            _OPTION_REGbits 0081                   ??_setup 0020  
              __pbssBANK0 002E                __pmaintext 0039             _writeToEEPROM 0CC0  
              __pintentry 0004             _addressEEPROM 003C                   ?_strlen 0020  
                 _RB3_old 002E                __stringtab 05EA            ?_writeToEEPROM 0020  
              decimal@val 0020                   ___awdiv 0E02                   ___awmod 0DA7  
                 _decenas 0033                   _decimal 0CFE                   __ptext1 0CC0  
                 __ptext2 0568                   __ptext3 0CFE                   __ptext4 0DA7  
                 __ptext5 0E02                   __ptext6 0D50                   __ptext7 0CDA  
                 __ptext8 0E6B                   __ptext9 0CAF           __size_of_strlen 0024  
               _T2CONbits 0012              __size_of_isr 0195          ___awmod@dividend 0022  
         _String_Completo 0D50      end_of_initialization 0035                 _RCSTAbits 0018  
            __pstringtext 0600                   strlen@s 0020            _readFromEEPROM 0CAF  
               _PORTAbits 0005                 _PORTBbits 0006                 _PORTDbits 0008  
             _CCP1CONbits 0017               _CCP2CONbits 001D                 _TXSTAbits 0098  
         ??_writeToEEPROM 0021    __end_of_readFromEEPROM 0CC0      writeToEEPROM@address 0020  
           __pidataCOMMON 05FF   __end_of_String_Completo 0DA7               _BAUDCTLbits 0187  
          __end_of_strlen 0CFE       start_initialization 000F        String_Completo@var 0024  
             __end_of_isr 1000            _temp_posicion1 0038            _temp_posicion2 0037  
         ?_readFromEEPROM 0070               __pdataBANK0 003A                  ??_strlen 0022  
             __pbssCOMMON 0078                 ___latbits 0002             __pcstackBANK0 0020  
                ?___awdiv 0020                  ?___awmod 0020                 _eepromVal 0030  
                ?_decimal 0070                 __pstrings 05EA          ?_String_Completo 0024  
          __size_of_setup 0082         interrupt_function 0004                  _PIE1bits 008C  
                _PIR1bits 000C                 _valor_pot 0036                _ADCON0bits 001F  
             __stringbase 05FC                _ADCON1bits 009F                _EECON1bits 018C  
             _read_EEPROM 007A          __size_of___awdiv 0069          __size_of___awmod 005B  
      __end_of__stringtab 05FC          __size_of_decimal 0052                  _centenas 0034  
           __size_of_main 052F          ??_readFromEEPROM 0070                  _var_temp 0035  
   __end_of_writeToEEPROM 0CDA                  _unidades 0031          String_Completo@i 0029  
              _INTCONbits 000B                  intlevel1 0000                 stringcode 05F4  
              _OSCCONbits 008F                  strlen@cp 0022                  stringtab 05EA  
